Archive member included because of file (symbol)

/home/gordo/devkitpro/libnds/lib/libdswifi9.a(wifi_arm9.o)
                              main.o (Wifi_ScanMode)
/home/gordo/devkitpro/libnds/lib/libdswifi9.a(spinlock.o)
                              /home/gordo/devkitpro/libnds/lib/libdswifi9.a(wifi_arm9.o) (SLasm_Acquire)
/home/gordo/devkitpro/libnds/lib/libdswifi9.a(sgIP.o)
                              /home/gordo/devkitpro/libnds/lib/libdswifi9.a(wifi_arm9.o) (sgIP_Timer)
/home/gordo/devkitpro/libnds/lib/libdswifi9.a(sgIP_ARP.o)
                              /home/gordo/devkitpro/libnds/lib/libdswifi9.a(sgIP.o) (sgIP_ARP_Init)
/home/gordo/devkitpro/libnds/lib/libdswifi9.a(sgIP_DHCP.o)
                              /home/gordo/devkitpro/libnds/lib/libdswifi9.a(wifi_arm9.o) (gethostname)
/home/gordo/devkitpro/libnds/lib/libdswifi9.a(sgIP_DNS.o)
                              /home/gordo/devkitpro/libnds/lib/libdswifi9.a(sgIP.o) (sgIP_DNS_Init)
/home/gordo/devkitpro/libnds/lib/libdswifi9.a(sgIP_Hub.o)
                              /home/gordo/devkitpro/libnds/lib/libdswifi9.a(sgIP.o) (sgIP_Hub_Init)
/home/gordo/devkitpro/libnds/lib/libdswifi9.a(sgIP_IP.o)
                              /home/gordo/devkitpro/libnds/lib/libdswifi9.a(sgIP.o) (sgIP_IP_ReceivePacket)
/home/gordo/devkitpro/libnds/lib/libdswifi9.a(sgIP_TCP.o)
                              /home/gordo/devkitpro/libnds/lib/libdswifi9.a(sgIP.o) (sgIP_TCP_Init)
/home/gordo/devkitpro/libnds/lib/libdswifi9.a(sgIP_UDP.o)
                              /home/gordo/devkitpro/libnds/lib/libdswifi9.a(sgIP.o) (sgIP_UDP_Init)
/home/gordo/devkitpro/libnds/lib/libdswifi9.a(sgIP_memblock.o)
                              /home/gordo/devkitpro/libnds/lib/libdswifi9.a(sgIP.o) (sgIP_memblock_Init)
/home/gordo/devkitpro/libnds/lib/libdswifi9.a(sgIP_sockets.o)
                              /home/gordo/devkitpro/libnds/lib/libdswifi9.a(sgIP_DHCP.o) (ioctl)
/home/gordo/devkitpro/libnds/lib/libdswifi9.a(sgIP_ICMP.o)
                              /home/gordo/devkitpro/libnds/lib/libdswifi9.a(sgIP_IP.o) (sgIP_ICMP_ReceivePacket)
/home/gordo/devkitpro/libnds/lib/libnds9.a(background.o)
                              main.o (bgInit_call)
/home/gordo/devkitpro/libnds/lib/libnds9.a(console.o)
                              main.o (consoleClear)
/home/gordo/devkitpro/libnds/lib/libnds9.a(decompress.o)
                              main.o (decompress)
/home/gordo/devkitpro/libnds/lib/libnds9.a(initSystem.o)
                              /home/gordo/devkitpro/devkitARM/bin/../lib/gcc/arm-eabi/4.4.0/../../../../arm-eabi/lib/thumb/ds_arm9_crt0.o (initSystem)
/home/gordo/devkitpro/libnds/lib/libnds9.a(keys.o)
                              main.o (scanKeys)
/home/gordo/devkitpro/libnds/lib/libnds9.a(system.o)
                              /home/gordo/devkitpro/libnds/lib/libnds9.a(initSystem.o) (powerValueHandler)
/home/gordo/devkitpro/libnds/lib/libnds9.a(touch.o)
                              main.o (touchRead)
/home/gordo/devkitpro/libnds/lib/libnds9.a(trig.o)
                              /home/gordo/devkitpro/libnds/lib/libnds9.a(background.o) (sinLerp)
/home/gordo/devkitpro/libnds/lib/libnds9.a(video.o)
                              main.o (vramSetBankA)
/home/gordo/devkitpro/libnds/lib/libnds9.a(fifosystem.o)
                              /home/gordo/devkitpro/libnds/lib/libdswifi9.a(wifi_arm9.o) (fifoSetValue32Handler)
/home/gordo/devkitpro/libnds/lib/libnds9.a(interrupts.o)
                              uart.o (irqSet)
/home/gordo/devkitpro/libnds/lib/libnds9.a(dcache.o)
                              /home/gordo/devkitpro/libnds/lib/libdswifi9.a(wifi_arm9.o) (DC_FlushAll)
/home/gordo/devkitpro/libnds/lib/libnds9.a(biosCalls.o)
                              main.o (swiDelay)
/home/gordo/devkitpro/libnds/lib/libnds9.a(debugprint.o)
                              /home/gordo/devkitpro/libnds/lib/libnds9.a(console.o) (nocashMessage)
/home/gordo/devkitpro/libnds/lib/libnds9.a(interruptDispatcher.o)
                              /home/gordo/devkitpro/libnds/lib/libnds9.a(interrupts.o) (IntrMain)
/home/gordo/devkitpro/libnds/lib/libnds9.a(default_font.bin.o)
                              /home/gordo/devkitpro/libnds/lib/libnds9.a(console.o) (default_font_bin)
/home/gordo/devkitpro/devkitARM/bin/../lib/gcc/arm-eabi/4.4.0/thumb/libgcc.a(_udivsi3.o)
                              main.o (__aeabi_uidiv)
/home/gordo/devkitpro/devkitARM/bin/../lib/gcc/arm-eabi/4.4.0/thumb/libgcc.a(_divsi3.o)
                              uart.o (__aeabi_idiv)
/home/gordo/devkitpro/devkitARM/bin/../lib/gcc/arm-eabi/4.4.0/thumb/libgcc.a(_dvmd_tls.o)
                              /home/gordo/devkitpro/devkitARM/bin/../lib/gcc/arm-eabi/4.4.0/thumb/libgcc.a(_udivsi3.o) (__div0)
/home/gordo/devkitpro/devkitARM/bin/../lib/gcc/arm-eabi/4.4.0/thumb/libgcc.a(_arm_addsubdf3.o)
                              uart.o (__aeabi_ui2d)
/home/gordo/devkitpro/devkitARM/bin/../lib/gcc/arm-eabi/4.4.0/thumb/libgcc.a(_arm_muldivdf3.o)
                              main.o (__aeabi_dmul)
/home/gordo/devkitpro/devkitARM/bin/../lib/gcc/arm-eabi/4.4.0/thumb/libgcc.a(_arm_fixunsdfsi.o)
                              main.o (__aeabi_d2uiz)
/home/gordo/devkitpro/devkitARM/bin/../lib/gcc/arm-eabi/4.4.0/thumb/libgcc.a(_arm_truncdfsf2.o)
                              uart.o (__aeabi_d2f)
/home/gordo/devkitpro/devkitARM/bin/../lib/gcc/arm-eabi/4.4.0/thumb/libgcc.a(_arm_addsubsf3.o)
                              main.o (__aeabi_fsub)
/home/gordo/devkitpro/devkitARM/bin/../lib/gcc/arm-eabi/4.4.0/thumb/libgcc.a(_arm_muldivsf3.o)
                              main.o (__aeabi_fmul)
/home/gordo/devkitpro/devkitARM/bin/../lib/gcc/arm-eabi/4.4.0/thumb/libgcc.a(_arm_cmpsf2.o)
                              main.o (__aeabi_fcmple)
/home/gordo/devkitpro/devkitARM/bin/../lib/gcc/arm-eabi/4.4.0/thumb/libgcc.a(_arm_fixunssfsi.o)
                              main.o (__aeabi_f2uiz)
/home/gordo/devkitpro/devkitARM/bin/../lib/gcc/arm-eabi/4.4.0/../../../../arm-eabi/lib/thumb/libg.a(lib_a-bsearch.o)
                              /home/gordo/devkitpro/libnds/lib/libnds9.a(trig.o) (bsearch)
/home/gordo/devkitpro/devkitARM/bin/../lib/gcc/arm-eabi/4.4.0/../../../../arm-eabi/lib/thumb/libg.a(lib_a-errno.o)
                              /home/gordo/devkitpro/libnds/lib/libdswifi9.a(sgIP_DHCP.o) (__errno)
/home/gordo/devkitpro/devkitARM/bin/../lib/gcc/arm-eabi/4.4.0/../../../../arm-eabi/lib/thumb/libg.a(lib_a-impure.o)
                              /home/gordo/devkitpro/libnds/lib/libnds9.a(console.o) (_impure_ptr)
/home/gordo/devkitpro/devkitARM/bin/../lib/gcc/arm-eabi/4.4.0/../../../../arm-eabi/lib/thumb/libg.a(lib_a-init.o)
                              /home/gordo/devkitpro/devkitARM/bin/../lib/gcc/arm-eabi/4.4.0/../../../../arm-eabi/lib/thumb/ds_arm9_crt0.o (__libc_init_array)
/home/gordo/devkitpro/devkitARM/bin/../lib/gcc/arm-eabi/4.4.0/../../../../arm-eabi/lib/thumb/libg.a(lib_a-iprintf.o)
                              main.o (iprintf)
/home/gordo/devkitpro/devkitARM/bin/../lib/gcc/arm-eabi/4.4.0/../../../../arm-eabi/lib/thumb/libg.a(lib_a-malloc.o)
                              aplist.o (free)
/home/gordo/devkitpro/devkitARM/bin/../lib/gcc/arm-eabi/4.4.0/../../../../arm-eabi/lib/thumb/libg.a(lib_a-mallocr.o)
                              /home/gordo/devkitpro/devkitARM/bin/../lib/gcc/arm-eabi/4.4.0/../../../../arm-eabi/lib/thumb/libg.a(lib_a-malloc.o) (_malloc_r)
/home/gordo/devkitpro/devkitARM/bin/../lib/gcc/arm-eabi/4.4.0/../../../../arm-eabi/lib/thumb/libg.a(lib_a-memcmp.o)
                              aplist.o (memcmp)
/home/gordo/devkitpro/devkitARM/bin/../lib/gcc/arm-eabi/4.4.0/../../../../arm-eabi/lib/thumb/libg.a(lib_a-memcpy.o)
                              aplist.o (memcpy)
/home/gordo/devkitpro/devkitARM/bin/../lib/gcc/arm-eabi/4.4.0/../../../../arm-eabi/lib/thumb/libg.a(lib_a-memmove.o)
                              uart.o (memmove)
/home/gordo/devkitpro/devkitARM/bin/../lib/gcc/arm-eabi/4.4.0/../../../../arm-eabi/lib/thumb/libg.a(lib_a-memset.o)
                              /home/gordo/devkitpro/libnds/lib/libdswifi9.a(sgIP_DHCP.o) (memset)
/home/gordo/devkitpro/devkitARM/bin/../lib/gcc/arm-eabi/4.4.0/../../../../arm-eabi/lib/thumb/libg.a(lib_a-mlock.o)
                              /home/gordo/devkitpro/devkitARM/bin/../lib/gcc/arm-eabi/4.4.0/../../../../arm-eabi/lib/thumb/libg.a(lib_a-mallocr.o) (__malloc_lock)
/home/gordo/devkitpro/devkitARM/bin/../lib/gcc/arm-eabi/4.4.0/../../../../arm-eabi/lib/thumb/libg.a(lib_a-printf.o)
                              main.o (printf)
/home/gordo/devkitpro/devkitARM/bin/../lib/gcc/arm-eabi/4.4.0/../../../../arm-eabi/lib/thumb/libg.a(lib_a-setvbuf.o)
                              /home/gordo/devkitpro/libnds/lib/libnds9.a(console.o) (setvbuf)
/home/gordo/devkitpro/devkitARM/bin/../lib/gcc/arm-eabi/4.4.0/../../../../arm-eabi/lib/thumb/libg.a(lib_a-siscanf.o)
                              /home/gordo/devkitpro/libnds/lib/libnds9.a(console.o) (siscanf)
/home/gordo/devkitpro/devkitARM/bin/../lib/gcc/arm-eabi/4.4.0/../../../../arm-eabi/lib/thumb/libg.a(lib_a-strlen.o)
                              uart.o (strlen)
/home/gordo/devkitpro/devkitARM/bin/../lib/gcc/arm-eabi/4.4.0/../../../../arm-eabi/lib/thumb/libg.a(lib_a-strncpy.o)
                              /home/gordo/devkitpro/libnds/lib/libdswifi9.a(sgIP_DHCP.o) (strncpy)
/home/gordo/devkitpro/devkitARM/bin/../lib/gcc/arm-eabi/4.4.0/../../../../arm-eabi/lib/thumb/libg.a(lib_a-svfiscanf.o)
                              /home/gordo/devkitpro/devkitARM/bin/../lib/gcc/arm-eabi/4.4.0/../../../../arm-eabi/lib/thumb/libg.a(lib_a-siscanf.o) (__ssvfiscanf_r)
/home/gordo/devkitpro/devkitARM/bin/../lib/gcc/arm-eabi/4.4.0/../../../../arm-eabi/lib/thumb/libg.a(lib_a-time.o)
                              aplist.o (time)
/home/gordo/devkitpro/devkitARM/bin/../lib/gcc/arm-eabi/4.4.0/../../../../arm-eabi/lib/thumb/libg.a(lib_a-ungetc.o)
                              /home/gordo/devkitpro/devkitARM/bin/../lib/gcc/arm-eabi/4.4.0/../../../../arm-eabi/lib/thumb/libg.a(lib_a-svfiscanf.o) (__submore)
/home/gordo/devkitpro/devkitARM/bin/../lib/gcc/arm-eabi/4.4.0/../../../../arm-eabi/lib/thumb/libg.a(lib_a-vfiprintf.o)
                              /home/gordo/devkitpro/devkitARM/bin/../lib/gcc/arm-eabi/4.4.0/../../../../arm-eabi/lib/thumb/libg.a(lib_a-iprintf.o) (_vfiprintf_r)
/home/gordo/devkitpro/devkitARM/bin/../lib/gcc/arm-eabi/4.4.0/../../../../arm-eabi/lib/thumb/libg.a(lib_a-vfprintf.o)
                              /home/gordo/devkitpro/devkitARM/bin/../lib/gcc/arm-eabi/4.4.0/../../../../arm-eabi/lib/thumb/libg.a(lib_a-printf.o) (_vfprintf_r)
/home/gordo/devkitpro/devkitARM/bin/../lib/gcc/arm-eabi/4.4.0/../../../../arm-eabi/lib/thumb/libg.a(lib_a-wcrtomb.o)
                              /home/gordo/devkitpro/devkitARM/bin/../lib/gcc/arm-eabi/4.4.0/../../../../arm-eabi/lib/thumb/libg.a(lib_a-vfiprintf.o) (_wcrtomb_r)
/home/gordo/devkitpro/devkitARM/bin/../lib/gcc/arm-eabi/4.4.0/../../../../arm-eabi/lib/thumb/libg.a(lib_a-wcsrtombs.o)
                              /home/gordo/devkitpro/devkitARM/bin/../lib/gcc/arm-eabi/4.4.0/../../../../arm-eabi/lib/thumb/libg.a(lib_a-vfiprintf.o) (_wcsrtombs_r)
/home/gordo/devkitpro/devkitARM/bin/../lib/gcc/arm-eabi/4.4.0/../../../../arm-eabi/lib/thumb/libg.a(lib_a-wctomb_r.o)
                              /home/gordo/devkitpro/devkitARM/bin/../lib/gcc/arm-eabi/4.4.0/../../../../arm-eabi/lib/thumb/libg.a(lib_a-wcrtomb.o) (_wctomb_r)
/home/gordo/devkitpro/devkitARM/bin/../lib/gcc/arm-eabi/4.4.0/../../../../arm-eabi/lib/thumb/libg.a(lib_a-wsetup.o)
                              /home/gordo/devkitpro/devkitARM/bin/../lib/gcc/arm-eabi/4.4.0/../../../../arm-eabi/lib/thumb/libg.a(lib_a-vfiprintf.o) (__swsetup_r)
/home/gordo/devkitpro/devkitARM/bin/../lib/gcc/arm-eabi/4.4.0/../../../../arm-eabi/lib/thumb/libg.a(lib_a-ctype_.o)
                              /home/gordo/devkitpro/devkitARM/bin/../lib/gcc/arm-eabi/4.4.0/../../../../arm-eabi/lib/thumb/libg.a(lib_a-svfiscanf.o) (__ctype_ptr__)
/home/gordo/devkitpro/devkitARM/bin/../lib/gcc/arm-eabi/4.4.0/../../../../arm-eabi/lib/thumb/libg.a(lib_a-dtoa.o)
                              /home/gordo/devkitpro/devkitARM/bin/../lib/gcc/arm-eabi/4.4.0/../../../../arm-eabi/lib/thumb/libg.a(lib_a-vfprintf.o) (_dtoa_r)
/home/gordo/devkitpro/devkitARM/bin/../lib/gcc/arm-eabi/4.4.0/../../../../arm-eabi/lib/thumb/libg.a(lib_a-fflush.o)
                              /home/gordo/devkitpro/devkitARM/bin/../lib/gcc/arm-eabi/4.4.0/../../../../arm-eabi/lib/thumb/libg.a(lib_a-setvbuf.o) (_fflush_r)
/home/gordo/devkitpro/devkitARM/bin/../lib/gcc/arm-eabi/4.4.0/../../../../arm-eabi/lib/thumb/libg.a(lib_a-findfp.o)
                              /home/gordo/devkitpro/devkitARM/bin/../lib/gcc/arm-eabi/4.4.0/../../../../arm-eabi/lib/thumb/libg.a(lib_a-setvbuf.o) (_cleanup_r)
/home/gordo/devkitpro/devkitARM/bin/../lib/gcc/arm-eabi/4.4.0/../../../../arm-eabi/lib/thumb/libg.a(lib_a-freer.o)
                              /home/gordo/devkitpro/devkitARM/bin/../lib/gcc/arm-eabi/4.4.0/../../../../arm-eabi/lib/thumb/libg.a(lib_a-malloc.o) (_free_r)
/home/gordo/devkitpro/devkitARM/bin/../lib/gcc/arm-eabi/4.4.0/../../../../arm-eabi/lib/thumb/libg.a(lib_a-fvwrite.o)
                              /home/gordo/devkitpro/devkitARM/bin/../lib/gcc/arm-eabi/4.4.0/../../../../arm-eabi/lib/thumb/libg.a(lib_a-vfiprintf.o) (__sfvwrite_r)
/home/gordo/devkitpro/devkitARM/bin/../lib/gcc/arm-eabi/4.4.0/../../../../arm-eabi/lib/thumb/libg.a(lib_a-fwalk.o)
                              /home/gordo/devkitpro/devkitARM/bin/../lib/gcc/arm-eabi/4.4.0/../../../../arm-eabi/lib/thumb/libg.a(lib_a-fflush.o) (_fwalk_reent)
/home/gordo/devkitpro/devkitARM/bin/../lib/gcc/arm-eabi/4.4.0/../../../../arm-eabi/lib/thumb/libg.a(lib_a-iswspace.o)
                              /home/gordo/devkitpro/devkitARM/bin/../lib/gcc/arm-eabi/4.4.0/../../../../arm-eabi/lib/thumb/libg.a(lib_a-svfiscanf.o) (iswspace)
/home/gordo/devkitpro/devkitARM/bin/../lib/gcc/arm-eabi/4.4.0/../../../../arm-eabi/lib/thumb/libg.a(lib_a-jp2uc.o)
                              /home/gordo/devkitpro/devkitARM/bin/../lib/gcc/arm-eabi/4.4.0/../../../../arm-eabi/lib/thumb/libg.a(lib_a-iswspace.o) (__jp2uc)
/home/gordo/devkitpro/devkitARM/bin/../lib/gcc/arm-eabi/4.4.0/../../../../arm-eabi/lib/thumb/libg.a(lib_a-locale.o)
                              /home/gordo/devkitpro/devkitARM/bin/../lib/gcc/arm-eabi/4.4.0/../../../../arm-eabi/lib/thumb/libg.a(lib_a-vfprintf.o) (_localeconv_r)
/home/gordo/devkitpro/devkitARM/bin/../lib/gcc/arm-eabi/4.4.0/../../../../arm-eabi/lib/thumb/libg.a(lib_a-makebuf.o)
                              /home/gordo/devkitpro/devkitARM/bin/../lib/gcc/arm-eabi/4.4.0/../../../../arm-eabi/lib/thumb/libg.a(lib_a-wsetup.o) (__smakebuf_r)
/home/gordo/devkitpro/devkitARM/bin/../lib/gcc/arm-eabi/4.4.0/../../../../arm-eabi/lib/thumb/libg.a(lib_a-mbrtowc.o)
                              /home/gordo/devkitpro/devkitARM/bin/../lib/gcc/arm-eabi/4.4.0/../../../../arm-eabi/lib/thumb/libg.a(lib_a-svfiscanf.o) (_mbrtowc_r)
/home/gordo/devkitpro/devkitARM/bin/../lib/gcc/arm-eabi/4.4.0/../../../../arm-eabi/lib/thumb/libg.a(lib_a-mbtowc_r.o)
                              /home/gordo/devkitpro/devkitARM/bin/../lib/gcc/arm-eabi/4.4.0/../../../../arm-eabi/lib/thumb/libg.a(lib_a-svfiscanf.o) (_mbtowc_r)
/home/gordo/devkitpro/devkitARM/bin/../lib/gcc/arm-eabi/4.4.0/../../../../arm-eabi/lib/thumb/libg.a(lib_a-memchr.o)
                              /home/gordo/devkitpro/devkitARM/bin/../lib/gcc/arm-eabi/4.4.0/../../../../arm-eabi/lib/thumb/libg.a(lib_a-vfiprintf.o) (memchr)
/home/gordo/devkitpro/devkitARM/bin/../lib/gcc/arm-eabi/4.4.0/../../../../arm-eabi/lib/thumb/libg.a(lib_a-mprec.o)
                              /home/gordo/devkitpro/devkitARM/bin/../lib/gcc/arm-eabi/4.4.0/../../../../arm-eabi/lib/thumb/libg.a(lib_a-dtoa.o) (_Bfree)
/home/gordo/devkitpro/devkitARM/bin/../lib/gcc/arm-eabi/4.4.0/../../../../arm-eabi/lib/thumb/libg.a(lib_a-reallocr.o)
                              /home/gordo/devkitpro/devkitARM/bin/../lib/gcc/arm-eabi/4.4.0/../../../../arm-eabi/lib/thumb/libg.a(lib_a-ungetc.o) (_realloc_r)
/home/gordo/devkitpro/devkitARM/bin/../lib/gcc/arm-eabi/4.4.0/../../../../arm-eabi/lib/thumb/libg.a(lib_a-sccl.o)
                              /home/gordo/devkitpro/devkitARM/bin/../lib/gcc/arm-eabi/4.4.0/../../../../arm-eabi/lib/thumb/libg.a(lib_a-svfiscanf.o) (__sccl)
/home/gordo/devkitpro/devkitARM/bin/../lib/gcc/arm-eabi/4.4.0/../../../../arm-eabi/lib/thumb/libg.a(lib_a-s_isinfd.o)
                              /home/gordo/devkitpro/devkitARM/bin/../lib/gcc/arm-eabi/4.4.0/../../../../arm-eabi/lib/thumb/libg.a(lib_a-vfprintf.o) (__isinfd)
/home/gordo/devkitpro/devkitARM/bin/../lib/gcc/arm-eabi/4.4.0/../../../../arm-eabi/lib/thumb/libg.a(lib_a-s_isnand.o)
                              /home/gordo/devkitpro/devkitARM/bin/../lib/gcc/arm-eabi/4.4.0/../../../../arm-eabi/lib/thumb/libg.a(lib_a-vfprintf.o) (__isnand)
/home/gordo/devkitpro/devkitARM/bin/../lib/gcc/arm-eabi/4.4.0/../../../../arm-eabi/lib/thumb/libg.a(lib_a-stdio.o)
                              /home/gordo/devkitpro/devkitARM/bin/../lib/gcc/arm-eabi/4.4.0/../../../../arm-eabi/lib/thumb/libg.a(lib_a-findfp.o) (__sclose)
/home/gordo/devkitpro/devkitARM/bin/../lib/gcc/arm-eabi/4.4.0/../../../../arm-eabi/lib/thumb/libg.a(lib_a-strcmp.o)
                              /home/gordo/devkitpro/devkitARM/bin/../lib/gcc/arm-eabi/4.4.0/../../../../arm-eabi/lib/thumb/libg.a(lib_a-wctomb_r.o) (strcmp)
/home/gordo/devkitpro/devkitARM/bin/../lib/gcc/arm-eabi/4.4.0/../../../../arm-eabi/lib/thumb/libg.a(lib_a-strcpy.o)
                              /home/gordo/devkitpro/devkitARM/bin/../lib/gcc/arm-eabi/4.4.0/../../../../arm-eabi/lib/thumb/libg.a(lib_a-locale.o) (strcpy)
/home/gordo/devkitpro/devkitARM/bin/../lib/gcc/arm-eabi/4.4.0/../../../../arm-eabi/lib/thumb/libg.a(lib_a-strtol.o)
                              /home/gordo/devkitpro/devkitARM/bin/../lib/gcc/arm-eabi/4.4.0/../../../../arm-eabi/lib/thumb/libg.a(lib_a-svfiscanf.o) (_strtol_r)
/home/gordo/devkitpro/devkitARM/bin/../lib/gcc/arm-eabi/4.4.0/../../../../arm-eabi/lib/thumb/libg.a(lib_a-strtoul.o)
                              /home/gordo/devkitpro/devkitARM/bin/../lib/gcc/arm-eabi/4.4.0/../../../../arm-eabi/lib/thumb/libg.a(lib_a-svfiscanf.o) (_strtoul_r)
/home/gordo/devkitpro/devkitARM/bin/../lib/gcc/arm-eabi/4.4.0/../../../../arm-eabi/lib/thumb/libg.a(lib_a-callocr.o)
                              /home/gordo/devkitpro/devkitARM/bin/../lib/gcc/arm-eabi/4.4.0/../../../../arm-eabi/lib/thumb/libg.a(lib_a-mprec.o) (_calloc_r)
/home/gordo/devkitpro/devkitARM/bin/../lib/gcc/arm-eabi/4.4.0/../../../../arm-eabi/lib/thumb/libg.a(lib_a-fclose.o)
                              /home/gordo/devkitpro/devkitARM/bin/../lib/gcc/arm-eabi/4.4.0/../../../../arm-eabi/lib/thumb/libg.a(lib_a-findfp.o) (fclose)
/home/gordo/devkitpro/devkitARM/bin/../lib/gcc/arm-eabi/4.4.0/../../../../arm-eabi/lib/thumb/libsysbase.a(iosupport.o)
                              /home/gordo/devkitpro/libnds/lib/libnds9.a(console.o) (devoptab_list)
/home/gordo/devkitpro/devkitARM/bin/../lib/gcc/arm-eabi/4.4.0/../../../../arm-eabi/lib/thumb/libsysbase.a(close.o)
                              /home/gordo/devkitpro/devkitARM/bin/../lib/gcc/arm-eabi/4.4.0/../../../../arm-eabi/lib/thumb/libg.a(lib_a-stdio.o) (_close_r)
/home/gordo/devkitpro/devkitARM/bin/../lib/gcc/arm-eabi/4.4.0/../../../../arm-eabi/lib/thumb/libsysbase.a(fstat.o)
                              /home/gordo/devkitpro/devkitARM/bin/../lib/gcc/arm-eabi/4.4.0/../../../../arm-eabi/lib/thumb/libg.a(lib_a-makebuf.o) (_fstat_r)
/home/gordo/devkitpro/devkitARM/bin/../lib/gcc/arm-eabi/4.4.0/../../../../arm-eabi/lib/thumb/libsysbase.a(isatty.o)
                              /home/gordo/devkitpro/devkitARM/bin/../lib/gcc/arm-eabi/4.4.0/../../../../arm-eabi/lib/thumb/libg.a(lib_a-makebuf.o) (_isatty_r)
/home/gordo/devkitpro/devkitARM/bin/../lib/gcc/arm-eabi/4.4.0/../../../../arm-eabi/lib/thumb/libsysbase.a(lseek.o)
                              /home/gordo/devkitpro/devkitARM/bin/../lib/gcc/arm-eabi/4.4.0/../../../../arm-eabi/lib/thumb/libg.a(lib_a-stdio.o) (_lseek_r)
/home/gordo/devkitpro/devkitARM/bin/../lib/gcc/arm-eabi/4.4.0/../../../../arm-eabi/lib/thumb/libsysbase.a(read.o)
                              /home/gordo/devkitpro/devkitARM/bin/../lib/gcc/arm-eabi/4.4.0/../../../../arm-eabi/lib/thumb/libg.a(lib_a-stdio.o) (_read_r)
/home/gordo/devkitpro/devkitARM/bin/../lib/gcc/arm-eabi/4.4.0/../../../../arm-eabi/lib/thumb/libsysbase.a(sbrk.o)
                              /home/gordo/devkitpro/devkitARM/bin/../lib/gcc/arm-eabi/4.4.0/../../../../arm-eabi/lib/thumb/libg.a(lib_a-mallocr.o) (_sbrk_r)
/home/gordo/devkitpro/devkitARM/bin/../lib/gcc/arm-eabi/4.4.0/../../../../arm-eabi/lib/thumb/libsysbase.a(times.o)
                              /home/gordo/devkitpro/devkitARM/bin/../lib/gcc/arm-eabi/4.4.0/../../../../arm-eabi/lib/thumb/libg.a(lib_a-time.o) (_gettimeofday_r)
/home/gordo/devkitpro/devkitARM/bin/../lib/gcc/arm-eabi/4.4.0/../../../../arm-eabi/lib/thumb/libsysbase.a(write.o)
                              /home/gordo/devkitpro/devkitARM/bin/../lib/gcc/arm-eabi/4.4.0/../../../../arm-eabi/lib/thumb/libg.a(lib_a-stdio.o) (_write_r)
/home/gordo/devkitpro/devkitARM/bin/../lib/gcc/arm-eabi/4.4.0/../../../../arm-eabi/lib/thumb/libsysbase.a(malloc_vars.o)
                              /home/gordo/devkitpro/devkitARM/bin/../lib/gcc/arm-eabi/4.4.0/../../../../arm-eabi/lib/thumb/ds_arm9_crt0.o (fake_heap_end)
/home/gordo/devkitpro/devkitARM/bin/../lib/gcc/arm-eabi/4.4.0/../../../../arm-eabi/lib/thumb/libsysbase.a(build_argv.o)
                              /home/gordo/devkitpro/devkitARM/bin/../lib/gcc/arm-eabi/4.4.0/../../../../arm-eabi/lib/thumb/ds_arm9_crt0.o (build_argv)
/home/gordo/devkitpro/devkitARM/bin/../lib/gcc/arm-eabi/4.4.0/../../../../arm-eabi/lib/thumb/libsysbase.a(handle_manager.o)
                              /home/gordo/devkitpro/devkitARM/bin/../lib/gcc/arm-eabi/4.4.0/../../../../arm-eabi/lib/thumb/libsysbase.a(close.o) (__get_handle)
/home/gordo/devkitpro/devkitARM/bin/../lib/gcc/arm-eabi/4.4.0/thumb/libgcc.a(_arm_cmpdf2.o)
                              /home/gordo/devkitpro/devkitARM/bin/../lib/gcc/arm-eabi/4.4.0/../../../../arm-eabi/lib/thumb/libg.a(lib_a-vfprintf.o) (__aeabi_dcmpeq)
/home/gordo/devkitpro/devkitARM/bin/../lib/gcc/arm-eabi/4.4.0/thumb/libgcc.a(_arm_fixdfsi.o)
                              /home/gordo/devkitpro/devkitARM/bin/../lib/gcc/arm-eabi/4.4.0/../../../../arm-eabi/lib/thumb/libg.a(lib_a-dtoa.o) (__aeabi_d2iz)
/home/gordo/devkitpro/devkitARM/bin/../lib/gcc/arm-eabi/4.4.0/../../../../arm-eabi/lib/thumb/libg.a(lib_a-strncmp.o)
                              /home/gordo/devkitpro/devkitARM/bin/../lib/gcc/arm-eabi/4.4.0/../../../../arm-eabi/lib/thumb/libsysbase.a(iosupport.o) (strncmp)

Allocating common symbols
Common symbol       size              file

Wifi_Data_Struct    0x9f44            /home/gordo/devkitpro/libnds/lib/libdswifi9.a(wifi_arm9.o)
dnsrecord_return    0x524             /home/gordo/devkitpro/libnds/lib/libdswifi9.a(sgIP_DNS.o)
tcprecords          0x4               /home/gordo/devkitpro/libnds/lib/libdswifi9.a(sgIP_TCP.o)
ProtocolInterfaces  0x8               /home/gordo/devkitpro/libnds/lib/libdswifi9.a(sgIP_Hub.o)
currentCopy         0x5c              /home/gordo/devkitpro/libnds/lib/libnds9.a(console.o)
udpport_counter     0x4               /home/gordo/devkitpro/libnds/lib/libdswifi9.a(sgIP_UDP.o)
fifo_datamsg_data   0x40              /home/gordo/devkitpro/libnds/lib/libnds9.a(fifosystem.o)
count_100ms         0x4               /home/gordo/devkitpro/libnds/lib/libdswifi9.a(sgIP.o)
lasttime            0x4               /home/gordo/devkitpro/libnds/lib/libdswifi9.a(sgIP_TCP.o)
dhcp_rcvd_dns       0xc               /home/gordo/devkitpro/libnds/lib/libdswifi9.a(sgIP_DHCP.o)
bgState             0x140             /home/gordo/devkitpro/libnds/lib/libnds9.a(background.o)
time_count          0x4               /home/gordo/devkitpro/libnds/lib/libdswifi9.a(sgIP_DNS.o)
port_counter        0x4               /home/gordo/devkitpro/libnds/lib/libdswifi9.a(sgIP_TCP.o)
dhcp_rcvd_snmask    0x4               /home/gordo/devkitpro/libnds/lib/libdswifi9.a(sgIP_DHCP.o)
fifo_buffer         0x1000            /home/gordo/devkitpro/libnds/lib/libnds9.a(fifosystem.o)
NumHWInterfaces     0x4               /home/gordo/devkitpro/libnds/lib/libdswifi9.a(sgIP_Hub.o)
dhcp_state          0x4               /home/gordo/devkitpro/libnds/lib/libdswifi9.a(sgIP_DHCP.o)
alias_list          0x14              /home/gordo/devkitpro/libnds/lib/libdswifi9.a(sgIP_DNS.o)
dhcp_p              0x4               /home/gordo/devkitpro/libnds/lib/libdswifi9.a(sgIP_DHCP.o)
dhcp_optionptr      0x4               /home/gordo/devkitpro/libnds/lib/libdswifi9.a(sgIP_DHCP.o)
socketlist          0x100             /home/gordo/devkitpro/libnds/lib/libdswifi9.a(sgIP_sockets.o)
bgIsTextLut         0x8               /home/gordo/devkitpro/libnds/lib/libnds9.a(background.o)
querydata           0x200             /home/gordo/devkitpro/libnds/lib/libdswifi9.a(sgIP_DNS.o)
responsedata        0x200             /home/gordo/devkitpro/libnds/lib/libdswifi9.a(sgIP_DNS.o)
dhcp_int            0x4               /home/gordo/devkitpro/libnds/lib/libdswifi9.a(sgIP_DHCP.o)
fifo_value32_func   0x40              /home/gordo/devkitpro/libnds/lib/libnds9.a(fifosystem.o)
fifo_address_func   0x40              /home/gordo/devkitpro/libnds/lib/libnds9.a(fifosystem.o)
fifo_freelist_start
                    0x4               /home/gordo/devkitpro/libnds/lib/libnds9.a(fifosystem.o)
dnsrecords          0x5240            /home/gordo/devkitpro/libnds/lib/libdswifi9.a(sgIP_DNS.o)
wifi_hw             0x4               /home/gordo/devkitpro/libnds/lib/libdswifi9.a(wifi_arm9.o)
dhcp_rcvd_ip        0x4               /home/gordo/devkitpro/libnds/lib/libdswifi9.a(sgIP_DHCP.o)
dhcp_hostname       0x40              /home/gordo/devkitpro/libnds/lib/libdswifi9.a(sgIP_DHCP.o)
dhcp_serverip       0x4               /home/gordo/devkitpro/libnds/lib/libdswifi9.a(sgIP_DHCP.o)
HWInterfaces        0x30              /home/gordo/devkitpro/libnds/lib/libdswifi9.a(sgIP_Hub.o)
ipaddr_ip           0x4               /home/gordo/devkitpro/libnds/lib/libdswifi9.a(sgIP_DNS.o)
wHeapsize           0x4               /home/gordo/devkitpro/libnds/lib/libdswifi9.a(wifi_arm9.o)
fifo_value32_data   0x40              /home/gordo/devkitpro/libnds/lib/libnds9.a(fifosystem.o)
theTime             0x4               /home/gordo/devkitpro/libnds/lib/libnds9.a(initSystem.o)
count_1000ms        0x4               /home/gordo/devkitpro/libnds/lib/libdswifi9.a(sgIP.o)
dhcp_tid            0x4               /home/gordo/devkitpro/libnds/lib/libdswifi9.a(sgIP_DHCP.o)
sgIP_timems         0x4               /home/gordo/devkitpro/libnds/lib/libdswifi9.a(sgIP.o)
ArpRecords          0x400             /home/gordo/devkitpro/libnds/lib/libdswifi9.a(sgIP_ARP.o)
query_time_start    0x4               /home/gordo/devkitpro/libnds/lib/libdswifi9.a(sgIP_DNS.o)
dhcp_requestDNS     0x4               /home/gordo/devkitpro/libnds/lib/libdswifi9.a(sgIP_DHCP.o)
fifo_sendwords_end  0x4               /home/gordo/devkitpro/libnds/lib/libnds9.a(fifosystem.o)
dhcp_socket         0x4               /home/gordo/devkitpro/libnds/lib/libdswifi9.a(sgIP_DHCP.o)
wHeapFirst          0x4               /home/gordo/devkitpro/libnds/lib/libdswifi9.a(wifi_arm9.o)
udprecords          0x4               /home/gordo/devkitpro/libnds/lib/libdswifi9.a(sgIP_UDP.o)
wifi_connect_point  0x58              /home/gordo/devkitpro/libnds/lib/libdswifi9.a(wifi_arm9.o)
numsynlist          0x4               /home/gordo/devkitpro/libnds/lib/libdswifi9.a(sgIP_TCP.o)
addr_list           0x14              /home/gordo/devkitpro/libnds/lib/libdswifi9.a(sgIP_DNS.o)
fifo_rcvdwords_start
                    0x4               /home/gordo/devkitpro/libnds/lib/libnds9.a(fifosystem.o)
fifo_channel_start  0x40              /home/gordo/devkitpro/libnds/lib/libnds9.a(fifosystem.o)
fifo_sendwords_start
                    0x4               /home/gordo/devkitpro/libnds/lib/libnds9.a(fifosystem.o)
punixTime           0x4               /home/gordo/devkitpro/devkitARM/bin/../lib/gcc/arm-eabi/4.4.0/../../../../arm-eabi/lib/thumb/libsysbase.a(times.o)
synlist             0x800             /home/gordo/devkitpro/libnds/lib/libdswifi9.a(sgIP_TCP.o)
fifo_address_data   0x40              /home/gordo/devkitpro/libnds/lib/libnds9.a(fifosystem.o)
ipaddr_alias        0x100             /home/gordo/devkitpro/libnds/lib/libdswifi9.a(sgIP_DNS.o)
dhcp_timestart      0x4               /home/gordo/devkitpro/libnds/lib/libdswifi9.a(sgIP_DHCP.o)
dhcp_status         0x4               /home/gordo/devkitpro/libnds/lib/libdswifi9.a(sgIP_DHCP.o)
fifo_channel_end    0x40              /home/gordo/devkitpro/libnds/lib/libnds9.a(fifosystem.o)
dns_sock            0x4               /home/gordo/devkitpro/libnds/lib/libdswifi9.a(sgIP_DNS.o)
wHeapStart          0x4               /home/gordo/devkitpro/libnds/lib/libdswifi9.a(wifi_arm9.o)
last_id             0x4               /home/gordo/devkitpro/libnds/lib/libdswifi9.a(sgIP_DNS.o)
sgIP_errno          0x4               /home/gordo/devkitpro/libnds/lib/libdswifi9.a(sgIP.o)
dnsrecord_hostent   0x14              /home/gordo/devkitpro/libnds/lib/libdswifi9.a(sgIP_DNS.o)
dhcp_rcvd_gateway   0x4               /home/gordo/devkitpro/libnds/lib/libdswifi9.a(sgIP_DHCP.o)
fifo_rcvdwords_end  0x4               /home/gordo/devkitpro/libnds/lib/libnds9.a(fifosystem.o)
NumProtocolInterfaces
                    0x4               /home/gordo/devkitpro/libnds/lib/libdswifi9.a(sgIP_Hub.o)
fifo_datamsg_func   0x40              /home/gordo/devkitpro/libnds/lib/libnds9.a(fifosystem.o)
idnum_count         0x4               /home/gordo/devkitpro/libnds/lib/libdswifi9.a(sgIP_IP.o)
dhcp_timelastaction
                    0x4               /home/gordo/devkitpro/libnds/lib/libdswifi9.a(sgIP_DHCP.o)

Memory Configuration

Name             Origin             Length             Attributes
rom              0x08000000         0x02000000
ewram            0x02000000         0x003ff000
dtcm             0x0b000000         0x00004000
vectors          0x01000000         0x00000100
itcm             0x01000100         0x00007f00
*default*        0x00000000         0xffffffff

Linker script and memory map

                0x01000000                __vectors_start = 0x1000000
                0x01000100                __itcm_start = 0x1000100
                0x023ff000                __ewram_end = 0x23ff000
                0x023ff000                __eheap_end = 0x23ff000
                0x0b000000                __dtcm_start = 0xb000000
                0x0b004000                __dtcm_top = 0xb004000
                0x0b003ff8                __irq_flags = (__dtcm_top - 0x8)
                0x0b003ffc                __irq_vector = (__dtcm_top - 0x4)
                0x0b003f00                __sp_svc = (__dtcm_top - 0x100)
                0x0b003e00                __sp_irq = (__sp_svc - 0x100)
                0x0b003d00                __sp_usr = (__sp_irq - 0x100)

.init           0x02000000      0x30c
                0x02000000                __text_start = .
 *(.init)
 .init          0x02000000      0x300 /home/gordo/devkitpro/devkitARM/bin/../lib/gcc/arm-eabi/4.4.0/../../../../arm-eabi/lib/thumb/ds_arm9_crt0.o
                0x02000000                _start
 .init          0x02000300        0x4 /home/gordo/devkitpro/devkitARM/bin/../lib/gcc/arm-eabi/4.4.0/thumb/crti.o
                0x02000300                _init
 .init          0x02000304        0x8 /home/gordo/devkitpro/devkitARM/bin/../lib/gcc/arm-eabi/4.4.0/thumb/crtn.o
                0x0200030c                . = ALIGN (0x4)

.plt
 *(.plt)

.text           0x02000310    0x13274
 *(EXCLUDE_FILE(*.itcm*) .text)
 .text          0x02000310        0x0 /home/gordo/devkitpro/devkitARM/bin/../lib/gcc/arm-eabi/4.4.0/../../../../arm-eabi/lib/thumb/ds_arm9_crt0.o
 .text          0x02000310        0x0 /home/gordo/devkitpro/devkitARM/bin/../lib/gcc/arm-eabi/4.4.0/thumb/crti.o
 .text          0x02000310       0x6c /home/gordo/devkitpro/devkitARM/bin/../lib/gcc/arm-eabi/4.4.0/thumb/crtbegin.o
 .text          0x0200037c        0x0 cclogo.o
 .text          0x0200037c      0x25c aplist.o
                0x020004a0                freeApList
                0x020003d8                updateAp
                0x020004d8                updateApList
                0x0200037c                sortApList
                0x02000408                insertAp
                0x02000478                getAp
 .text          0x020005d8      0x35c brut.o
                0x020008b0                analog_read_fast
                0x02000810                i2c_receive
                0x02000654                servo_detach
                0x020005d8                em4102_send
                0x02000870                atmega_reset
                0x02000734                analog_write
                0x02000708                atmega_read_8
                0x02000760                analog_read
                0x02000620                servo_set
                0x020006dc                atmega_write_8
                0x020007b8                i2c_send
                0x0200067c                digital_write
                0x020006ac                digital_read
 *fill*         0x02000934        0x4 ff
 .text          0x02000938      0x3d8 main.o
                0x02000938                usleep
                0x02000950                main
 .text          0x02000d10      0x110 spi_driver.o
                0x02000de8                setupConsecutive_cardSPI
                0x02000d10                init_cardSPI
                0x02000d48                readBlocking_cardSPI
                0x02000d68                write_cardSPI
                0x02000da8                writeBlocking_cardSPI
                0x02000d28                read_cardSPI
                0x02000df4                config_cardSPI
                0x02000e14                disable_cardSPI
 .text          0x02000e20      0x8d8 uart.o
                0x02001488                uart_send
                0x02000e20                uart_available
                0x02001070                uart_write
                0x02001248                uart_requeue
                0x02000f18                uart_set_watermarks
                0x02000f38                uart_get_spi_rate
                0x02000e2c                uart_set_spi_rate
                0x020013b8                uart_readstr
                0x02001294                uart_readln
                0x020014b8                uart_init
                0x02001214                uart_set_bps
                0x02000f7c                uart_close
                0x020011ec                uart_set_parity
                0x020011c0                uart_firmware_ver
                0x02001420                uart_wait
                0x0200112c                uart_write_prio
                0x02000ffc                uart_wait_prio
                0x02001364                uart_read
                0x02001468                uart_sendc
                0x02001444                uart_flush
                0x020013d4                uart_write_block
 .text          0x020016f8     0x15dc /home/gordo/devkitpro/libnds/lib/libdswifi9.a(wifi_arm9.o)
                0x02002c08                Wifi_InitDefault
                0x020017d8                wHeapFree
                0x02001b10                Wifi_RawSetPacketHandler
                0x02001b60                Wifi_SetPromiscuousMode
                0x0200210c                wifiValue32Handler
                0x02001b1c                Wifi_SetSyncHandler
                0x02001d34                Wifi_GetData
                0x020019a0                Wifi_RawTxFrame
                0x02001824                ethhdr_print
                0x02001ddc                Wifi_SetIP
                0x02002b4c                wHeapAllocInit
                0x02001c3c                Wifi_DisconnectAP
                0x02001dcc                arm9_synctoarm7
                0x02001cf4                Wifi_GetIPInfo
                0x02001bac                Wifi_SetChannel
                0x02002120                Wifi_Timer
                0x02001cb4                Wifi_CheckInit
                0x02001708                sgIP_RestoreInterrupts
                0x02001718                sgIP_IntrWaitEvent
                0x02002b74                Wifi_Init
                0x02002140                Wifi_TransmitFunction
                0x02002544                Wifi_FindMatchingAP
                0x02001bd4                Wifi_GetNumAP
                0x0200183c                Wifi_CopyMacAddr
                0x02002100                Wifi_Sync
                0x02001828                erasemem
                0x02001b44                Wifi_EnableWifi
                0x02001904                Wifi_RxRawReadPacket
                0x02001c6c                Wifi_Interface_Init
                0x02002a1c                Wifi_ConnectAP
                0x02001ce0                Wifi_GetIP
                0x02002130                Timer_50ms
                0x02001d30                Wifi_SetDHCP
                0x0200184c                Wifi_CmpMacAddr
                0x02001b90                Wifi_ScanMode
                0x0200249c                Wifi_GetAPData
                0x02001c0c                Wifi_AutoConnect
                0x02001804                sgIP_free
                0x02002674                Wifi_AssocStatus
                0x020017f8                sgIP_malloc
                0x02001878                Wifi_TxBufferWordsAvailable
                0x0200171c                wHeapAlloc
                0x020018a0                Wifi_TxBufferWrite
                0x02001e04                Wifi_Update
                0x02001974                Wifi_RxReadOffset
                0x02001da8                Wifi_GetStats
                0x02001b28                Wifi_DisableWifi
                0x020016f8                sgIP_DisableInterrupts
 .text          0x02002cd4       0x5c /home/gordo/devkitpro/libnds/lib/libdswifi9.a(spinlock.o)
                0x02002cd4                SLasm_Acquire
                0x02002d08                SLasm_Release
 .text          0x02002d30       0xa4 /home/gordo/devkitpro/libnds/lib/libdswifi9.a(sgIP.o)
                0x02002d30                sgIP_Timer
                0x02002d98                sgIP_Init
 .text          0x02002dd4      0x668 /home/gordo/devkitpro/libnds/lib/libdswifi9.a(sgIP_ARP.o)
                0x02003320                sgIP_ARP_ProcessARPFrame
                0x02002e08                sgIP_is_broadcast_address
                0x02003118                sgIP_ARP_Timer100ms
                0x02002e18                sgIP_ARP_Init
                0x02002f54                sgIP_ARP_SendGratARP
                0x02002e6c                sgIP_ARP_ProcessIPFrame
                0x02002e14                sgIP_ARP_Check_isok
                0x02002e38                sgIP_ARP_FlushInterface
                0x02002e70                sgIP_ARP_SendARPRequest
                0x02003038                sgIP_ARP_SendARPResponse
                0x020031e8                sgIP_ARP_SendProtocolFrame
                0x02003190                sgIP_GetArpSlot
                0x02002dd4                sgIP_FindArpSlot
 .text          0x0200343c      0x924 /home/gordo/devkitpro/libnds/lib/libdswifi9.a(sgIP_DHCP.o)
                0x0200343c                sgIP_DHCP_IsDhcpIp
                0x02003d20                sgIP_DHCP_Init
                0x02003820                sgIP_DHCP_Update
                0x02003c1c                sgIP_DHCP_Release
                0x0200355c                sgIP_DHCP_BeginDgram
                0x02003524                sgIP_DHCP_Terminate
                0x0200344c                sethostname
                0x020037a4                sgIP_DHCP_SendDgram
                0x020034c8                gethostname
                0x02003c54                sgIP_DHCP_Start
                0x02003508                sgIP_DHCP_SetHostName
 .text          0x02003d60      0xabc /home/gordo/devkitpro/libnds/lib/libdswifi9.a(sgIP_DNS.o)
                0x02004408                sgIP_DNS_gethostbyname
                0x02003fec                sgIP_DNS_GetUnusedRecord
                0x02004080                sgIP_DNS_FindDNSRecord
                0x020043ec                inet_addr
                0x02003d98                sgIP_DNS_Timer1000ms
                0x02003e90                sgIP_DNS_GenerateHostent
                0x020043d0                inet_aton
                0x02003fd8                inet_ntoa
                0x02003d60                sgIP_DNS_Init
                0x02004198                sgIP_DNS_isipaddress
                0x02003f64                sgIP_DNS_CopyAliasAt
 .text          0x0200481c      0x204 /home/gordo/devkitpro/libnds/lib/libdswifi9.a(sgIP_Hub.o)
                0x02004950                sgIP_Hub_SendRawPacket
                0x020049c0                sgIP_Hub_ReceiveHardwarePacket
                0x020048f4                sgIP_Hub_GetCompatibleIP
                0x02004930                htonl
                0x0200486c                sgIP_Hub_AddHardwareInterface
                0x020048cc                sgIP_Hub_RemoveHardwareInterface
                0x0200490c                sgIP_Hub_GetDefaultInterface
                0x0200481c                sgIP_Hub_Init
                0x020048ec                sgIP_Hub_IPMaxMessageSize
                0x02004830                sgIP_Hub_AddProtocolInterface
                0x02004920                htons
                0x02004978                sgIP_Hub_SendProtocolPacket
                0x020048ac                sgIP_Hub_RemoveProtocolInterface
 .text          0x02004a20      0x158 /home/gordo/devkitpro/libnds/lib/libdswifi9.a(sgIP_IP.o)
                0x02004a20                sgIP_IP_RequiredHeaderSize
                0x02004ae0                sgIP_IP_ReceivePacket
                0x02004a38                sgIP_IP_SendViaIP
                0x02004a24                sgIP_IP_GetLocalBindAddr
                0x02004ad0                sgIP_IP_MaxContentsSize
 .text          0x02004b78     0x11dc /home/gordo/devkitpro/libnds/lib/libdswifi9.a(sgIP_TCP.o)
                0x02004b78                sgIP_TCP_Init
                0x02004bfc                sgIP_TCP_GetUnusedOutgoingPort
                0x02004c68                sgIP_TCP_Close
                0x02005478                sgIP_TCP_Timer
                0x02005198                sgIP_TCP_Recv
                0x02004d90                sgIP_TCP_AllocRecord
                0x02004de0                sgIP_TCP_FreeRecord
                0x020056e4                sgIP_TCP_CalcChecksum
                0x02004c98                sgIP_TCP_Accept
                0x02004ecc                sgIP_TCP_GenHeader
                0x02004d38                sgIP_TCP_Listen
                0x020053ac                sgIP_TCP_Connect
                0x0200500c                sgIP_TCP_SendSynReply
                0x02005750                sgIP_TCP_ReceivePacket
                0x020050b0                sgIP_TCP_SendPacket
                0x02005298                sgIP_TCP_Send
                0x02004bac                sgIP_TCP_support_seqhash
                0x02004d10                sgIP_TCP_Bind
                0x02004f90                sgIP_TCP_FixChecksum
 .text          0x02005d54      0x474 /home/gordo/devkitpro/libnds/lib/libdswifi9.a(sgIP_UDP.o)
                0x02005dd8                sgIP_UDP_Bind
                0x02005d70                sgIP_UDP_GetUnusedOutgoingPort
                0x02005fac                sgIP_UDP_CalcChecksum
                0x02005d54                sgIP_UDP_Init
                0x02005f08                sgIP_UDP_FreeRecord
                0x02006020                sgIP_UDP_SendPacket
                0x0200611c                sgIP_UDP_ReceivePacket
                0x02006108                sgIP_UDP_SendTo
                0x02005e14                sgIP_UDP_RecvFrom
                0x02005f6c                sgIP_UDP_AllocRecord
 .text          0x020061c8      0x2e0 /home/gordo/devkitpro/libnds/lib/libdswifi9.a(sgIP_memblock.o)
                0x0200640c                sgIP_memblock_free
                0x02006320                sgIP_memblock_CopyFromLinear
                0x02006498                sgIP_memblock_alloc
                0x0200631c                sgIP_memblock_CopyBlock
                0x02006398                sgIP_memblock_CopyToLinear
                0x020061fc                sgIP_memblock_IPChecksum
                0x020061c8                sgIP_memblock_Init
                0x020061cc                sgIP_memblock_exposeheader
                0x0200643c                sgIP_memblock_trimsize
                0x02006470                sgIP_memblock_allocHW
 .text          0x020064a8      0xb4c /home/gordo/devkitpro/libnds/lib/libdswifi9.a(sgIP_sockets.o)
                0x020068a0                ioctl
                0x02006c88                recv
                0x02006dc0                connect
                0x02006938                kill_socket
                0x02006b48                recvfrom
                0x02006f5c                socket
                0x020064d0                select
                0x02006d24                send
                0x02006a20                accept
                0x020064a8                sgIP_sockets_Init
                0x02006ea8                bind
                0x020064c8                setsockopt
                0x02006c14                sendto
                0x02006af8                listen
                0x02006970                spawn_socket
                0x020069d0                shutdown
                0x02006758                gethostbyname
                0x02006f08                closesocket
                0x02006808                getpeername
                0x020064cc                getsockopt
                0x02006764                getsockname
 .text          0x02006ff4       0x6c /home/gordo/devkitpro/libnds/lib/libdswifi9.a(sgIP_ICMP.o)
                0x02006ff8                sgIP_ICMP_ReceivePacket
                0x02006ff4                sgIP_ICMP_Init
 .text          0x02007060      0x320 /home/gordo/devkitpro/libnds/lib/libnds9.a(background.o)
                0x020070bc                bgUpdate
                0x020072b0                bgInit_call
                0x0200706c                checkIfText
                0x020071b4                bgInitSub_call
                0x02007060                bgIsText
 .text          0x02007380      0xa3c /home/gordo/devkitpro/libnds/lib/libnds9.a(console.o)
                0x02007ac4                con_write
                0x02007380                consoleGetDefault
                0x02007918                consoleInit
                0x0200786c                consoleSetFont
                0x02007d8c                nocash_write
                0x02007448                consolePrintChar
                0x020078b8                consoleClear
                0x02007890                consoleSetWindow
                0x02007388                consoleSelect
                0x02007a88                consoleDemoInit
                0x020075f4                consoleLoadFont
                0x020078cc                consoleDebugInit
 .text          0x02007dbc       0xb0 /home/gordo/devkitpro/libnds/lib/libnds9.a(decompress.o)
                0x02007e28                decompress
                0x02007dc4                decompressStream
                0x02007dbc                getHeader
                0x02007dc0                readByte
 .text          0x02007e6c       0xec /home/gordo/devkitpro/libnds/lib/libnds9.a(initSystem.o)
                0x02007e6c                initSystem
 .text          0x02007f58      0x134 /home/gordo/devkitpro/libnds/lib/libnds9.a(keys.o)
                0x02008018                keysSetRepeat
                0x02008008                keysDownRepeat
                0x02008054                keysCurrent
                0x02007fe8                keysHeld
                0x0200803c                keysUp
                0x02007ff4                keysDown
                0x02007f58                scanKeys
 .text          0x0200808c       0xf4 /home/gordo/devkitpro/libnds/lib/libnds9.a(system.o)
                0x0200813c                systemMsgHandler
                0x020080d4                powerOn
                0x02008124                powerValueHandler
                0x0200808c                ledBlink
                0x02008108                systemSleep
                0x020080a4                powerOff
 .text          0x02008180       0x4c /home/gordo/devkitpro/libnds/lib/libnds9.a(touch.o)
                0x02008180                touchRead
                0x020081a8                touchReadXY
 .text          0x020081cc      0x264 /home/gordo/devkitpro/libnds/lib/libnds9.a(trig.o)
                0x02008364                arcSinComp
                0x02008394                asinLerp
                0x02008324                tanLerp
                0x020081cc                sinLutLookup
                0x020082d8                tanLutLookup
                0x020082bc                cosLerp
                0x02008414                acosLerp
                0x0200821c                sinLerp
 .text          0x02008430      0x144 /home/gordo/devkitpro/libnds/lib/libnds9.a(video.o)
                0x020084e4                vramSetBankF
                0x02008474                vramRestoreMainBanks
                0x0200850c                vramSetBankH
                0x020084bc                vramSetBankD
                0x020084d0                vramSetBankE
                0x02008534                setBrightness
                0x020084f8                vramSetBankG
                0x02008494                vramSetBankB
                0x020084a8                vramSetBankC
                0x02008520                vramSetBankI
                0x02008430                vramSetMainBanks
                0x02008480                vramSetBankA
 .text          0x02008574     0x18b8 /home/gordo/devkitpro/libnds/lib/libnds9.a(fifosystem.o)
                0x02009510                fifoInternalRecvPopFirst
                0x020085fc                fifoCheckValue32
                0x0200870c                fifoCheckDatamsgLength
                0x02008f04                fifoGetLostWordCount
                0x02008e74                fifoGetBufferUsage
                0x02009bd4                fifoSendValue32
                0x02009ae4                fifoInternalSend
                0x02008bdc                fifoGetDatamsg
                0x020089f4                fifoGetValue32
                0x0200880c                fifoGetAddress
                0x0200879c                fifoCountDatamsg
                0x02008b44                fifoForceValue32Handler
                0x02008684                fifoCheckDatamsg
                0x020094b0                fifoInternalRecvPeek
                0x02009a04                fifoInternalAllocFreeBlock
                0x020089cc                fifoSetAddressHandler
                0x02009470                fifoInternalProtect
                0x02008db8                fifoForceDatamsgHandler
                0x02009918                fifoInternalSendEnqueue
                0x02009b7c                fifoSendDatamsg
                0x02009750                fifoInternalSendEmpty
                0x0200989c                fifoInternalSendInterrupt
                0x02009c1c                fifoSendAddress
                0x02009760                fifoInternalSendDeque
                0x02008f10                fifoInternalRecvInterrupt
                0x02008574                fifoCheckAddress
                0x02009a58                fifoInternalFreeCheck
                0x020095e4                fifoInternalRecvWordCount
                0x02009664                fifoInternalRecvPushBack
                0x0200948c                fifoInternalUnprotect
                0x0200895c                fifoForceAddressHandler
                0x02008bb4                fifoSetValue32Handler
                0x02009834                fifoInternalBeginSend
                0x02009c58                fifoInit
                0x02008e4c                fifoSetDatamsgHandler
                0x02009a34                fifoInternalFreeBlock
 .text          0x02009e2c      0x1a8 /home/gordo/devkitpro/libnds/lib/libnds9.a(interrupts.o)
                0x02009f0c                irqEnable
                0x02009e30                irqSet
                0x02009f58                irqDisable
                0x02009e90                irqInit
                0x02009e2c                irqDummy
                0x02009edc                irqInitHandler
                0x02009fa4                irqClear
 .text          0x02009fd4       0x70 /home/gordo/devkitpro/libnds/lib/libnds9.a(dcache.o)
                0x02009fd4                DC_FlushAll
                0x0200a000                DC_FlushRange
                0x0200a028                DC_InvalidateRange
                0x0200a01c                DC_InvalidateAll
 *fill*         0x0200a044        0xc ff
 .text          0x0200a050       0x70 /home/gordo/devkitpro/libnds/lib/libnds9.a(biosCalls.o)
                0x0200a060                swiSleep
                0x0200a09a                swiDecompressLZSSVram
                0x0200a082                swiFastCopy
                0x0200a086                swiSqrt
                0x0200a050                swiSoftReset
                0x0200a08a                swiCRC16
                0x0200a09e                swiDecompressHuffman
                0x0200a0b6                swiSetHaltCR
                0x0200a06c                swiRemainder
                0x0200a092                swiUnpackBits
                0x0200a096                swiDecompressLZSSWram
                0x0200a0b2                swiDecodeDelta16
                0x0200a054                swiDelay
                0x0200a072                swiDivMod
                0x0200a0a6                swiDecompressRLEVram
                0x0200a0a2                swiDecompressRLEWram
                0x0200a0ae                swiDecodeDelta8
                0x0200a068                swiDivide
                0x0200a064                swiChangeSoundBias
                0x0200a05c                swiWaitForVBlank
                0x0200a058                swiIntrWait
                0x0200a08e                swiIsDebugger
                0x0200a0aa                swiWaitForIRQ
                0x0200a07e                swiCopy
 .text          0x0200a0c0       0x98 /home/gordo/devkitpro/libnds/lib/libnds9.a(debugprint.o)
                0x0200a0c0                nocashMessage
 .text          0x0200a158        0x0 /home/gordo/devkitpro/libnds/lib/libnds9.a(interruptDispatcher.o)
 .text          0x0200a158        0x0 /home/gordo/devkitpro/libnds/lib/libnds9.a(default_font.bin.o)
 .text          0x0200a158       0x8c /home/gordo/devkitpro/devkitARM/bin/../lib/gcc/arm-eabi/4.4.0/thumb/libgcc.a(_udivsi3.o)
                0x0200a158                __udivsi3
                0x0200a158                __aeabi_uidiv
                0x0200a1d4                __aeabi_uidivmod
 .text          0x0200a1e4       0xa4 /home/gordo/devkitpro/devkitARM/bin/../lib/gcc/arm-eabi/4.4.0/thumb/libgcc.a(_divsi3.o)
                0x0200a1e4                __aeabi_idiv
                0x0200a1e4                __divsi3
                0x0200a278                __aeabi_idivmod
 .text          0x0200a288        0x4 /home/gordo/devkitpro/devkitARM/bin/../lib/gcc/arm-eabi/4.4.0/thumb/libgcc.a(_dvmd_tls.o)
                0x0200a288                __aeabi_ldiv0
                0x0200a288                __div0
                0x0200a288                __aeabi_idiv0
 .text          0x0200a28c      0x41c /home/gordo/devkitpro/devkitARM/bin/../lib/gcc/arm-eabi/4.4.0/thumb/libgcc.a(_arm_addsubdf3.o)
                0x0200a648                __floatdidf
                0x0200a5cc                __floatsidf
                0x0200a5a8                __aeabi_ui2d
                0x0200a28c                __aeabi_drsub
                0x0200a5f4                __extendsfdf2
                0x0200a298                __adddf3
                0x0200a5a8                __floatunsidf
                0x0200a298                __aeabi_dadd
                0x0200a634                __aeabi_ul2d
                0x0200a294                __aeabi_dsub
                0x0200a634                __floatundidf
                0x0200a5cc                __aeabi_i2d
                0x0200a648                __aeabi_l2d
                0x0200a5f4                __aeabi_f2d
                0x0200a294                __subdf3
 .text          0x0200a6a8      0x49c /home/gordo/devkitpro/devkitARM/bin/../lib/gcc/arm-eabi/4.4.0/thumb/libgcc.a(_arm_muldivdf3.o)
                0x0200a938                __aeabi_ddiv
                0x0200a6a8                __aeabi_dmul
                0x0200a938                __divdf3
                0x0200a6a8                __muldf3
 .text          0x0200ab44       0x54 /home/gordo/devkitpro/devkitARM/bin/../lib/gcc/arm-eabi/4.4.0/thumb/libgcc.a(_arm_fixunsdfsi.o)
                0x0200ab44                __fixunsdfsi
                0x0200ab44                __aeabi_d2uiz
 .text          0x0200ab98       0xa0 /home/gordo/devkitpro/devkitARM/bin/../lib/gcc/arm-eabi/4.4.0/thumb/libgcc.a(_arm_truncdfsf2.o)
                0x0200ab98                __aeabi_d2f
                0x0200ab98                __truncdfsf2
 .text          0x0200ac38      0x2ac /home/gordo/devkitpro/devkitARM/bin/../lib/gcc/arm-eabi/4.4.0/thumb/libgcc.a(_arm_addsubsf3.o)
                0x0200ac44                __aeabi_fadd
                0x0200ac40                __subsf3
                0x0200ae08                __aeabi_i2f
                0x0200ac40                __aeabi_fsub
                0x0200ae38                __floatdisf
                0x0200ae08                __floatsisf
                0x0200ae28                __floatundisf
                0x0200ae00                __aeabi_ui2f
                0x0200ae38                __aeabi_l2f
                0x0200ae28                __aeabi_ul2f
                0x0200ac38                __aeabi_frsub
                0x0200ae00                __floatunsisf
                0x0200ac44                __addsf3
 .text          0x0200aee4      0x2f8 /home/gordo/devkitpro/devkitARM/bin/../lib/gcc/arm-eabi/4.4.0/thumb/libgcc.a(_arm_muldivsf3.o)
                0x0200b07c                __divsf3
                0x0200b07c                __aeabi_fdiv
                0x0200aee4                __mulsf3
                0x0200aee4                __aeabi_fmul
 .text          0x0200b1dc      0x110 /home/gordo/devkitpro/devkitARM/bin/../lib/gcc/arm-eabi/4.4.0/thumb/libgcc.a(_arm_cmpsf2.o)
                0x0200b2d4                __aeabi_fcmpgt
                0x0200b1e4                __lesf2
                0x0200b1ec                __nesf2
                0x0200b2bc                __aeabi_fcmpge
                0x0200b1dc                __gtsf2
                0x0200b2a4                __aeabi_fcmple
                0x0200b1ec                __eqsf2
                0x0200b1ec                __cmpsf2
                0x0200b1e4                __ltsf2
                0x0200b25c                __aeabi_cfcmple
                0x0200b1dc                __gesf2
                0x0200b274                __aeabi_fcmpeq
                0x0200b24c                __aeabi_cfrcmple
                0x0200b28c                __aeabi_fcmplt
                0x0200b25c                __aeabi_cfcmpeq
 .text          0x0200b2ec       0x54 /home/gordo/devkitpro/devkitARM/bin/../lib/gcc/arm-eabi/4.4.0/thumb/libgcc.a(_arm_fixunssfsi.o)
                0x0200b2ec                __aeabi_f2uiz
                0x0200b2ec                __fixunssfsi
 .text          0x0200b340       0x60 /home/gordo/devkitpro/devkitARM/bin/../lib/gcc/arm-eabi/4.4.0/../../../../arm-eabi/lib/thumb/libg.a(lib_a-bsearch.o)
                0x0200b340                bsearch
 .text          0x0200b3a0        0xc /home/gordo/devkitpro/devkitARM/bin/../lib/gcc/arm-eabi/4.4.0/../../../../arm-eabi/lib/thumb/libg.a(lib_a-errno.o)
                0x0200b3a0                __errno
 .text          0x0200b3ac        0x0 /home/gordo/devkitpro/devkitARM/bin/../lib/gcc/arm-eabi/4.4.0/../../../../arm-eabi/lib/thumb/libg.a(lib_a-impure.o)
 .text          0x0200b3ac       0x84 /home/gordo/devkitpro/devkitARM/bin/../lib/gcc/arm-eabi/4.4.0/../../../../arm-eabi/lib/thumb/libg.a(lib_a-init.o)
                0x0200b3dc                __libc_init_array
                0x0200b3ac                __libc_fini_array
 .text          0x0200b430       0x40 /home/gordo/devkitpro/devkitARM/bin/../lib/gcc/arm-eabi/4.4.0/../../../../arm-eabi/lib/thumb/libg.a(lib_a-iprintf.o)
                0x0200b430                _iprintf_r
                0x0200b44c                iprintf
 .text          0x0200b470       0x30 /home/gordo/devkitpro/devkitARM/bin/../lib/gcc/arm-eabi/4.4.0/../../../../arm-eabi/lib/thumb/libg.a(lib_a-malloc.o)
                0x0200b488                malloc
                0x0200b470                free
 .text          0x0200b4a0      0x504 /home/gordo/devkitpro/devkitARM/bin/../lib/gcc/arm-eabi/4.4.0/../../../../arm-eabi/lib/thumb/libg.a(lib_a-mallocr.o)
                0x0200b4a0                _malloc_r
 .text          0x0200b9a4       0x58 /home/gordo/devkitpro/devkitARM/bin/../lib/gcc/arm-eabi/4.4.0/../../../../arm-eabi/lib/thumb/libg.a(lib_a-memcmp.o)
                0x0200b9a4                memcmp
 .text          0x0200b9fc       0x80 /home/gordo/devkitpro/devkitARM/bin/../lib/gcc/arm-eabi/4.4.0/../../../../arm-eabi/lib/thumb/libg.a(lib_a-memcpy.o)
                0x0200b9fc                memcpy
 .text          0x0200ba7c       0xa0 /home/gordo/devkitpro/devkitARM/bin/../lib/gcc/arm-eabi/4.4.0/../../../../arm-eabi/lib/thumb/libg.a(lib_a-memmove.o)
                0x0200ba7c                memmove
 .text          0x0200bb1c       0x94 /home/gordo/devkitpro/devkitARM/bin/../lib/gcc/arm-eabi/4.4.0/../../../../arm-eabi/lib/thumb/libg.a(lib_a-memset.o)
                0x0200bb1c                memset
 .text          0x0200bbb0        0x8 /home/gordo/devkitpro/devkitARM/bin/../lib/gcc/arm-eabi/4.4.0/../../../../arm-eabi/lib/thumb/libg.a(lib_a-mlock.o)
                0x0200bbb4                __malloc_unlock
                0x0200bbb0                __malloc_lock
 .text          0x0200bbb8       0x40 /home/gordo/devkitpro/devkitARM/bin/../lib/gcc/arm-eabi/4.4.0/../../../../arm-eabi/lib/thumb/libg.a(lib_a-printf.o)
                0x0200bbb8                printf
                0x0200bbdc                _printf_r
 .text          0x0200bbf8      0x10c /home/gordo/devkitpro/devkitARM/bin/../lib/gcc/arm-eabi/4.4.0/../../../../arm-eabi/lib/thumb/libg.a(lib_a-setvbuf.o)
                0x0200bbf8                setvbuf
 .text          0x0200bd04       0xa4 /home/gordo/devkitpro/devkitARM/bin/../lib/gcc/arm-eabi/4.4.0/../../../../arm-eabi/lib/thumb/libg.a(lib_a-siscanf.o)
                0x0200bd08                _siscanf_r
                0x0200bd58                siscanf
 .text          0x0200bda8       0x6c /home/gordo/devkitpro/devkitARM/bin/../lib/gcc/arm-eabi/4.4.0/../../../../arm-eabi/lib/thumb/libg.a(lib_a-strlen.o)
                0x0200bda8                strlen
 .text          0x0200be14       0x64 /home/gordo/devkitpro/devkitARM/bin/../lib/gcc/arm-eabi/4.4.0/../../../../arm-eabi/lib/thumb/libg.a(lib_a-strncpy.o)
                0x0200be14                strncpy
 .text          0x0200be78      0xa6c /home/gordo/devkitpro/devkitARM/bin/../lib/gcc/arm-eabi/4.4.0/../../../../arm-eabi/lib/thumb/libg.a(lib_a-svfiscanf.o)
                0x0200bf4c                __ssvfiscanf_r
 .text          0x0200c8e4       0x34 /home/gordo/devkitpro/devkitARM/bin/../lib/gcc/arm-eabi/4.4.0/../../../../arm-eabi/lib/thumb/libg.a(lib_a-time.o)
                0x0200c8e4                time
 .text          0x0200c918      0x1a0 /home/gordo/devkitpro/devkitARM/bin/../lib/gcc/arm-eabi/4.4.0/../../../../arm-eabi/lib/thumb/libg.a(lib_a-ungetc.o)
                0x0200ca9c                ungetc
                0x0200c918                __submore
                0x0200c994                _ungetc_r
 .text          0x0200cab8      0xd48 /home/gordo/devkitpro/devkitARM/bin/../lib/gcc/arm-eabi/4.4.0/../../../../arm-eabi/lib/thumb/libg.a(lib_a-vfiprintf.o)
                0x0200d7e0                vfiprintf
                0x0200cad8                _vfiprintf_r
 .text          0x0200d800     0x17f0 /home/gordo/devkitpro/devkitARM/bin/../lib/gcc/arm-eabi/4.4.0/../../../../arm-eabi/lib/thumb/libg.a(lib_a-vfprintf.o)
                0x0200d820                _vfprintf_r
                0x0200efcc                vfprintf
 .text          0x0200eff0       0x64 /home/gordo/devkitpro/devkitARM/bin/../lib/gcc/arm-eabi/4.4.0/../../../../arm-eabi/lib/thumb/libg.a(lib_a-wcrtomb.o)
                0x0200eff0                _wcrtomb_r
                0x0200f034                wcrtomb
 .text          0x0200f054      0x104 /home/gordo/devkitpro/devkitARM/bin/../lib/gcc/arm-eabi/4.4.0/../../../../arm-eabi/lib/thumb/libg.a(lib_a-wcsrtombs.o)
                0x0200f054                _wcsrtombs_r
                0x0200f130                wcsrtombs
 .text          0x0200f158      0x2c8 /home/gordo/devkitpro/devkitARM/bin/../lib/gcc/arm-eabi/4.4.0/../../../../arm-eabi/lib/thumb/libg.a(lib_a-wctomb_r.o)
                0x0200f158                _wctomb_r
 .text          0x0200f420       0xd0 /home/gordo/devkitpro/devkitARM/bin/../lib/gcc/arm-eabi/4.4.0/../../../../arm-eabi/lib/thumb/libg.a(lib_a-wsetup.o)
                0x0200f420                __swsetup_r
 .text          0x0200f4f0        0x0 /home/gordo/devkitpro/devkitARM/bin/../lib/gcc/arm-eabi/4.4.0/../../../../arm-eabi/lib/thumb/libg.a(lib_a-ctype_.o)
 .text          0x0200f4f0      0xff0 /home/gordo/devkitpro/devkitARM/bin/../lib/gcc/arm-eabi/4.4.0/../../../../arm-eabi/lib/thumb/libg.a(lib_a-dtoa.o)
                0x0200f644                _dtoa_r
 .text          0x020104e0      0x148 /home/gordo/devkitpro/devkitARM/bin/../lib/gcc/arm-eabi/4.4.0/../../../../arm-eabi/lib/thumb/libg.a(lib_a-fflush.o)
                0x020105f4                fflush
                0x020104e0                _fflush_r
 .text          0x02010628      0x1e0 /home/gordo/devkitpro/devkitARM/bin/../lib/gcc/arm-eabi/4.4.0/../../../../arm-eabi/lib/thumb/libg.a(lib_a-findfp.o)
                0x020106ec                __sinit
                0x02010748                __sfmoreglue
                0x0201068c                _cleanup
                0x02010678                _cleanup_r
                0x0201065c                __fp_lock_all
                0x02010628                __sfp_lock_acquire
                0x02010778                __sfp
                0x02010634                __sinit_lock_release
                0x02010640                __fp_unlock_all
                0x0201062c                __sfp_lock_release
                0x02010630                __sinit_lock_acquire
 .text          0x02010808      0x250 /home/gordo/devkitpro/devkitARM/bin/../lib/gcc/arm-eabi/4.4.0/../../../../arm-eabi/lib/thumb/libg.a(lib_a-freer.o)
                0x020108ac                _free_r
                0x02010808                _malloc_trim_r
 .text          0x02010a58      0x328 /home/gordo/devkitpro/devkitARM/bin/../lib/gcc/arm-eabi/4.4.0/../../../../arm-eabi/lib/thumb/libg.a(lib_a-fvwrite.o)
                0x02010a58                __sfvwrite_r
 .text          0x02010d80       0xc4 /home/gordo/devkitpro/devkitARM/bin/../lib/gcc/arm-eabi/4.4.0/../../../../arm-eabi/lib/thumb/libg.a(lib_a-fwalk.o)
                0x02010de4                _fwalk
                0x02010d80                _fwalk_reent
 .text          0x02010e44       0xe8 /home/gordo/devkitpro/devkitARM/bin/../lib/gcc/arm-eabi/4.4.0/../../../../arm-eabi/lib/thumb/libg.a(lib_a-iswspace.o)
                0x02010e44                iswspace
 .text          0x02010f2c      0x190 /home/gordo/devkitpro/devkitARM/bin/../lib/gcc/arm-eabi/4.4.0/../../../../arm-eabi/lib/thumb/libg.a(lib_a-jp2uc.o)
                0x02010f2c                __jp2uc
 .text          0x020110bc      0x28c /home/gordo/devkitpro/devkitARM/bin/../lib/gcc/arm-eabi/4.4.0/../../../../arm-eabi/lib/thumb/libg.a(lib_a-locale.o)
                0x020110d8                _setlocale_r
                0x020110bc                __locale_charset
                0x020110c8                _localeconv_r
                0x0201132c                setlocale
                0x020110d0                localeconv
 .text          0x02011348       0xe8 /home/gordo/devkitpro/devkitARM/bin/../lib/gcc/arm-eabi/4.4.0/../../../../arm-eabi/lib/thumb/libg.a(lib_a-makebuf.o)
                0x02011348                __smakebuf_r
 .text          0x02011430       0x70 /home/gordo/devkitpro/devkitARM/bin/../lib/gcc/arm-eabi/4.4.0/../../../../arm-eabi/lib/thumb/libg.a(lib_a-mbrtowc.o)
                0x02011478                mbrtowc
                0x02011430                _mbrtowc_r
 .text          0x020114a0      0x660 /home/gordo/devkitpro/devkitARM/bin/../lib/gcc/arm-eabi/4.4.0/../../../../arm-eabi/lib/thumb/libg.a(lib_a-mbtowc_r.o)
                0x020114a0                _mbtowc_r
 .text          0x02011b00       0x80 /home/gordo/devkitpro/devkitARM/bin/../lib/gcc/arm-eabi/4.4.0/../../../../arm-eabi/lib/thumb/libg.a(lib_a-memchr.o)
                0x02011b00                memchr
 .text          0x02011b80      0x9d8 /home/gordo/devkitpro/devkitARM/bin/../lib/gcc/arm-eabi/4.4.0/../../../../arm-eabi/lib/thumb/libg.a(lib_a-mprec.o)
                0x02011de8                _mprec_log10
                0x02011e74                __any_on
                0x02011ec8                _Balloc
                0x02011d84                __ratio
                0x02012348                __i2b
                0x02011ce8                __b2d
                0x020124bc                __s2b
                0x02011c54                __mcmp
                0x02011b98                __hi0bits
                0x02012404                __pow5mult
                0x02012120                __lshift
                0x020121e4                __multiply
                0x02011f1c                __d2b
                0x02011e2c                __copybits
                0x02011c98                __ulp
                0x02012000                __mdiff
                0x02011bec                __lo0bits
                0x02012360                __multadd
                0x02011b80                _Bfree
 .text          0x02012558      0x360 /home/gordo/devkitpro/devkitARM/bin/../lib/gcc/arm-eabi/4.4.0/../../../../arm-eabi/lib/thumb/libg.a(lib_a-reallocr.o)
                0x02012558                _realloc_r
 .text          0x020128b8       0x78 /home/gordo/devkitpro/devkitARM/bin/../lib/gcc/arm-eabi/4.4.0/../../../../arm-eabi/lib/thumb/libg.a(lib_a-sccl.o)
                0x020128b8                __sccl
 .text          0x02012930       0x24 /home/gordo/devkitpro/devkitARM/bin/../lib/gcc/arm-eabi/4.4.0/../../../../arm-eabi/lib/thumb/libg.a(lib_a-s_isinfd.o)
                0x02012930                __isinfd
 .text          0x02012954       0x20 /home/gordo/devkitpro/devkitARM/bin/../lib/gcc/arm-eabi/4.4.0/../../../../arm-eabi/lib/thumb/libg.a(lib_a-s_isnand.o)
                0x02012954                __isnand
 .text          0x02012974       0xa8 /home/gordo/devkitpro/devkitARM/bin/../lib/gcc/arm-eabi/4.4.0/../../../../arm-eabi/lib/thumb/libg.a(lib_a-stdio.o)
                0x02012984                __sseek
                0x020129f0                __sread
                0x02012974                __sclose
                0x020129b4                __swrite
 .text          0x02012a1c       0x5c /home/gordo/devkitpro/devkitARM/bin/../lib/gcc/arm-eabi/4.4.0/../../../../arm-eabi/lib/thumb/libg.a(lib_a-strcmp.o)
                0x02012a1c                strcmp
 .text          0x02012a78       0x4c /home/gordo/devkitpro/devkitARM/bin/../lib/gcc/arm-eabi/4.4.0/../../../../arm-eabi/lib/thumb/libg.a(lib_a-strcpy.o)
                0x02012a78                strcpy
 .text          0x02012ac4      0x190 /home/gordo/devkitpro/devkitARM/bin/../lib/gcc/arm-eabi/4.4.0/../../../../arm-eabi/lib/thumb/libg.a(lib_a-strtol.o)
                0x02012c34                strtol
                0x02012ac4                _strtol_r
 .text          0x02012c54      0x17c /home/gordo/devkitpro/devkitARM/bin/../lib/gcc/arm-eabi/4.4.0/../../../../arm-eabi/lib/thumb/libg.a(lib_a-strtoul.o)
                0x02012db0                strtoul
                0x02012c54                _strtoul_r
 .text          0x02012dd0       0x5c /home/gordo/devkitpro/devkitARM/bin/../lib/gcc/arm-eabi/4.4.0/../../../../arm-eabi/lib/thumb/libg.a(lib_a-callocr.o)
                0x02012dd0                _calloc_r
 .text          0x02012e2c       0xc0 /home/gordo/devkitpro/devkitARM/bin/../lib/gcc/arm-eabi/4.4.0/../../../../arm-eabi/lib/thumb/libg.a(lib_a-fclose.o)
                0x02012e2c                _fclose_r
                0x02012ed0                fclose
 .text          0x02012eec      0x13c /home/gordo/devkitpro/devkitARM/bin/../lib/gcc/arm-eabi/4.4.0/../../../../arm-eabi/lib/thumb/libsysbase.a(iosupport.o)
                0x02013004                RemoveDevice
                0x02012eec                setDefaultDevice
                0x02012f00                AddDevice
                0x02012fe4                GetDeviceOpTab
                0x02012f7c                FindDevice
 .text          0x02013028       0x50 /home/gordo/devkitpro/devkitARM/bin/../lib/gcc/arm-eabi/4.4.0/../../../../arm-eabi/lib/thumb/libsysbase.a(close.o)
                0x02013028                _close_r
 .text          0x02013078       0x58 /home/gordo/devkitpro/devkitARM/bin/../lib/gcc/arm-eabi/4.4.0/../../../../arm-eabi/lib/thumb/libsysbase.a(fstat.o)
                0x02013078                _fstat_r
 .text          0x020130d0        0x4 /home/gordo/devkitpro/devkitARM/bin/../lib/gcc/arm-eabi/4.4.0/../../../../arm-eabi/lib/thumb/libsysbase.a(isatty.o)
                0x020130d0                _isatty_r
 .text          0x020130d4       0x50 /home/gordo/devkitpro/devkitARM/bin/../lib/gcc/arm-eabi/4.4.0/../../../../arm-eabi/lib/thumb/libsysbase.a(lseek.o)
                0x020130d4                _lseek_r
 .text          0x02013124       0x50 /home/gordo/devkitpro/devkitARM/bin/../lib/gcc/arm-eabi/4.4.0/../../../../arm-eabi/lib/thumb/libsysbase.a(read.o)
                0x02013124                _read_r
 .text          0x02013174       0x54 /home/gordo/devkitpro/devkitARM/bin/../lib/gcc/arm-eabi/4.4.0/../../../../arm-eabi/lib/thumb/libsysbase.a(sbrk.o)
                0x02013174                _sbrk_r
 .text          0x020131c8       0x48 /home/gordo/devkitpro/devkitARM/bin/../lib/gcc/arm-eabi/4.4.0/../../../../arm-eabi/lib/thumb/libsysbase.a(times.o)
                0x020131d0                _gettimeofday_r
                0x020131c8                _times_r
                0x020131fc                _times
 .text          0x02013210       0x50 /home/gordo/devkitpro/devkitARM/bin/../lib/gcc/arm-eabi/4.4.0/../../../../arm-eabi/lib/thumb/libsysbase.a(write.o)
                0x02013210                _write_r
 .text          0x02013260        0x0 /home/gordo/devkitpro/devkitARM/bin/../lib/gcc/arm-eabi/4.4.0/../../../../arm-eabi/lib/thumb/libsysbase.a(malloc_vars.o)
 .text          0x02013260       0x54 /home/gordo/devkitpro/devkitARM/bin/../lib/gcc/arm-eabi/4.4.0/../../../../arm-eabi/lib/thumb/libsysbase.a(build_argv.o)
                0x02013260                build_argv
 .text          0x020132b4       0x88 /home/gordo/devkitpro/devkitARM/bin/../lib/gcc/arm-eabi/4.4.0/../../../../arm-eabi/lib/thumb/libsysbase.a(handle_manager.o)
                0x02013310                __release_handle
                0x020132d4                __alloc_handle
                0x020132b4                __get_handle
 .text          0x0201333c      0x140 /home/gordo/devkitpro/devkitARM/bin/../lib/gcc/arm-eabi/4.4.0/thumb/libgcc.a(_arm_cmpdf2.o)
                0x02013434                __aeabi_dcmple
                0x0201334c                __cmpdf2
                0x0201334c                __eqdf2
                0x0201333c                __gtdf2
                0x020133ec                __aeabi_cdcmple
                0x020133d0                __aeabi_cdrcmple
                0x02013344                __ltdf2
                0x0201341c                __aeabi_dcmplt
                0x02013344                __ledf2
                0x02013464                __aeabi_dcmpgt
                0x0201344c                __aeabi_dcmpge
                0x0201334c                __nedf2
                0x02013404                __aeabi_dcmpeq
                0x020133ec                __aeabi_cdcmpeq
                0x0201333c                __gedf2
 .text          0x0201347c       0x5c /home/gordo/devkitpro/devkitARM/bin/../lib/gcc/arm-eabi/4.4.0/thumb/libgcc.a(_arm_fixdfsi.o)
                0x0201347c                __fixdfsi
                0x0201347c                __aeabi_d2iz
 .text          0x020134d8       0xac /home/gordo/devkitpro/devkitARM/bin/../lib/gcc/arm-eabi/4.4.0/../../../../arm-eabi/lib/thumb/libg.a(lib_a-strncmp.o)
                0x020134d8                strncmp
 .text          0x02013584        0x0 /home/gordo/devkitpro/devkitARM/bin/../lib/gcc/arm-eabi/4.4.0/thumb/crtend.o
 .text          0x02013584        0x0 /home/gordo/devkitpro/devkitARM/bin/../lib/gcc/arm-eabi/4.4.0/thumb/crtn.o
 *(.text.*)
 *(.stub)
 *(.gnu.warning)
 *(.gnu.linkonce.t*)
 *(.glue_7)
 .glue_7        0x02013584        0x0 /home/gordo/devkitpro/devkitARM/bin/../lib/gcc/arm-eabi/4.4.0/../../../../arm-eabi/lib/thumb/ds_arm9_crt0.o
 .glue_7        0x02013584        0x0 /home/gordo/devkitpro/devkitARM/bin/../lib/gcc/arm-eabi/4.4.0/thumb/crti.o
 .glue_7        0x02013584        0x0 /home/gordo/devkitpro/devkitARM/bin/../lib/gcc/arm-eabi/4.4.0/thumb/crtbegin.o
 .glue_7        0x02013584        0x0 cclogo.o
 .glue_7        0x02013584        0x0 aplist.o
 .glue_7        0x02013584        0x0 brut.o
 .glue_7        0x02013584        0x0 main.o
 .glue_7        0x02013584        0x0 spi_driver.o
 .glue_7        0x02013584        0x0 uart.o
 .glue_7        0x02013584        0x0 /home/gordo/devkitpro/libnds/lib/libdswifi9.a(wifi_arm9.o)
 .glue_7        0x02013584        0x0 /home/gordo/devkitpro/libnds/lib/libdswifi9.a(spinlock.o)
 .glue_7        0x02013584        0x0 /home/gordo/devkitpro/libnds/lib/libdswifi9.a(sgIP.o)
 .glue_7        0x02013584        0x0 /home/gordo/devkitpro/libnds/lib/libdswifi9.a(sgIP_ARP.o)
 .glue_7        0x02013584        0x0 /home/gordo/devkitpro/libnds/lib/libdswifi9.a(sgIP_DHCP.o)
 .glue_7        0x02013584        0x0 /home/gordo/devkitpro/libnds/lib/libdswifi9.a(sgIP_DNS.o)
 .glue_7        0x02013584        0x0 /home/gordo/devkitpro/libnds/lib/libdswifi9.a(sgIP_Hub.o)
 .glue_7        0x02013584        0x0 /home/gordo/devkitpro/libnds/lib/libdswifi9.a(sgIP_IP.o)
 .glue_7        0x02013584        0x0 /home/gordo/devkitpro/libnds/lib/libdswifi9.a(sgIP_TCP.o)
 .glue_7        0x02013584        0x0 /home/gordo/devkitpro/libnds/lib/libdswifi9.a(sgIP_UDP.o)
 .glue_7        0x02013584        0x0 /home/gordo/devkitpro/libnds/lib/libdswifi9.a(sgIP_memblock.o)
 .glue_7        0x02013584        0x0 /home/gordo/devkitpro/libnds/lib/libdswifi9.a(sgIP_sockets.o)
 .glue_7        0x02013584        0x0 /home/gordo/devkitpro/libnds/lib/libdswifi9.a(sgIP_ICMP.o)
 .glue_7        0x02013584        0x0 /home/gordo/devkitpro/libnds/lib/libnds9.a(background.o)
 .glue_7        0x02013584        0x0 /home/gordo/devkitpro/libnds/lib/libnds9.a(console.o)
 .glue_7        0x02013584        0x0 /home/gordo/devkitpro/libnds/lib/libnds9.a(decompress.o)
 .glue_7        0x02013584        0x0 /home/gordo/devkitpro/libnds/lib/libnds9.a(initSystem.o)
 .glue_7        0x02013584        0x0 /home/gordo/devkitpro/libnds/lib/libnds9.a(keys.o)
 .glue_7        0x02013584        0x0 /home/gordo/devkitpro/libnds/lib/libnds9.a(system.o)
 .glue_7        0x02013584        0x0 /home/gordo/devkitpro/libnds/lib/libnds9.a(touch.o)
 .glue_7        0x02013584        0x0 /home/gordo/devkitpro/libnds/lib/libnds9.a(trig.o)
 .glue_7        0x02013584        0x0 /home/gordo/devkitpro/libnds/lib/libnds9.a(video.o)
 .glue_7        0x02013584        0x0 /home/gordo/devkitpro/libnds/lib/libnds9.a(fifosystem.o)
 .glue_7        0x02013584        0x0 /home/gordo/devkitpro/libnds/lib/libnds9.a(interrupts.o)
 .glue_7        0x02013584        0x0 /home/gordo/devkitpro/libnds/lib/libnds9.a(dcache.o)
 .glue_7        0x02013584        0x0 /home/gordo/devkitpro/libnds/lib/libnds9.a(biosCalls.o)
 .glue_7        0x02013584        0x0 /home/gordo/devkitpro/libnds/lib/libnds9.a(debugprint.o)
 .glue_7        0x02013584        0x0 /home/gordo/devkitpro/libnds/lib/libnds9.a(interruptDispatcher.o)
 .glue_7        0x02013584        0x0 /home/gordo/devkitpro/libnds/lib/libnds9.a(default_font.bin.o)
 .glue_7        0x02013584        0x0 /home/gordo/devkitpro/devkitARM/bin/../lib/gcc/arm-eabi/4.4.0/thumb/libgcc.a(_udivsi3.o)
 .glue_7        0x02013584        0x0 /home/gordo/devkitpro/devkitARM/bin/../lib/gcc/arm-eabi/4.4.0/thumb/libgcc.a(_divsi3.o)
 .glue_7        0x02013584        0x0 /home/gordo/devkitpro/devkitARM/bin/../lib/gcc/arm-eabi/4.4.0/thumb/libgcc.a(_dvmd_tls.o)
 .glue_7        0x02013584        0x0 /home/gordo/devkitpro/devkitARM/bin/../lib/gcc/arm-eabi/4.4.0/thumb/libgcc.a(_arm_addsubdf3.o)
 .glue_7        0x02013584        0x0 /home/gordo/devkitpro/devkitARM/bin/../lib/gcc/arm-eabi/4.4.0/thumb/libgcc.a(_arm_muldivdf3.o)
 .glue_7        0x02013584        0x0 /home/gordo/devkitpro/devkitARM/bin/../lib/gcc/arm-eabi/4.4.0/thumb/libgcc.a(_arm_fixunsdfsi.o)
 .glue_7        0x02013584        0x0 /home/gordo/devkitpro/devkitARM/bin/../lib/gcc/arm-eabi/4.4.0/thumb/libgcc.a(_arm_truncdfsf2.o)
 .glue_7        0x02013584        0x0 /home/gordo/devkitpro/devkitARM/bin/../lib/gcc/arm-eabi/4.4.0/thumb/libgcc.a(_arm_addsubsf3.o)
 .glue_7        0x02013584        0x0 /home/gordo/devkitpro/devkitARM/bin/../lib/gcc/arm-eabi/4.4.0/thumb/libgcc.a(_arm_muldivsf3.o)
 .glue_7        0x02013584        0x0 /home/gordo/devkitpro/devkitARM/bin/../lib/gcc/arm-eabi/4.4.0/thumb/libgcc.a(_arm_cmpsf2.o)
 .glue_7        0x02013584        0x0 /home/gordo/devkitpro/devkitARM/bin/../lib/gcc/arm-eabi/4.4.0/thumb/libgcc.a(_arm_fixunssfsi.o)
 .glue_7        0x02013584        0x0 /home/gordo/devkitpro/devkitARM/bin/../lib/gcc/arm-eabi/4.4.0/../../../../arm-eabi/lib/thumb/libg.a(lib_a-bsearch.o)
 .glue_7        0x02013584        0x0 /home/gordo/devkitpro/devkitARM/bin/../lib/gcc/arm-eabi/4.4.0/../../../../arm-eabi/lib/thumb/libg.a(lib_a-errno.o)
 .glue_7        0x02013584        0x0 /home/gordo/devkitpro/devkitARM/bin/../lib/gcc/arm-eabi/4.4.0/../../../../arm-eabi/lib/thumb/libg.a(lib_a-impure.o)
 .glue_7        0x02013584        0x0 /home/gordo/devkitpro/devkitARM/bin/../lib/gcc/arm-eabi/4.4.0/../../../../arm-eabi/lib/thumb/libg.a(lib_a-init.o)
 .glue_7        0x02013584        0x0 /home/gordo/devkitpro/devkitARM/bin/../lib/gcc/arm-eabi/4.4.0/../../../../arm-eabi/lib/thumb/libg.a(lib_a-iprintf.o)
 .glue_7        0x02013584        0x0 /home/gordo/devkitpro/devkitARM/bin/../lib/gcc/arm-eabi/4.4.0/../../../../arm-eabi/lib/thumb/libg.a(lib_a-malloc.o)
 .glue_7        0x02013584        0x0 /home/gordo/devkitpro/devkitARM/bin/../lib/gcc/arm-eabi/4.4.0/../../../../arm-eabi/lib/thumb/libg.a(lib_a-mallocr.o)
 .glue_7        0x02013584        0x0 /home/gordo/devkitpro/devkitARM/bin/../lib/gcc/arm-eabi/4.4.0/../../../../arm-eabi/lib/thumb/libg.a(lib_a-memcmp.o)
 .glue_7        0x02013584        0x0 /home/gordo/devkitpro/devkitARM/bin/../lib/gcc/arm-eabi/4.4.0/../../../../arm-eabi/lib/thumb/libg.a(lib_a-memcpy.o)
 .glue_7        0x02013584        0x0 /home/gordo/devkitpro/devkitARM/bin/../lib/gcc/arm-eabi/4.4.0/../../../../arm-eabi/lib/thumb/libg.a(lib_a-memmove.o)
 .glue_7        0x02013584        0x0 /home/gordo/devkitpro/devkitARM/bin/../lib/gcc/arm-eabi/4.4.0/../../../../arm-eabi/lib/thumb/libg.a(lib_a-memset.o)
 .glue_7        0x02013584        0x0 /home/gordo/devkitpro/devkitARM/bin/../lib/gcc/arm-eabi/4.4.0/../../../../arm-eabi/lib/thumb/libg.a(lib_a-mlock.o)
 .glue_7        0x02013584        0x0 /home/gordo/devkitpro/devkitARM/bin/../lib/gcc/arm-eabi/4.4.0/../../../../arm-eabi/lib/thumb/libg.a(lib_a-printf.o)
 .glue_7        0x02013584        0x0 /home/gordo/devkitpro/devkitARM/bin/../lib/gcc/arm-eabi/4.4.0/../../../../arm-eabi/lib/thumb/libg.a(lib_a-setvbuf.o)
 .glue_7        0x02013584        0x0 /home/gordo/devkitpro/devkitARM/bin/../lib/gcc/arm-eabi/4.4.0/../../../../arm-eabi/lib/thumb/libg.a(lib_a-siscanf.o)
 .glue_7        0x02013584        0x0 /home/gordo/devkitpro/devkitARM/bin/../lib/gcc/arm-eabi/4.4.0/../../../../arm-eabi/lib/thumb/libg.a(lib_a-strlen.o)
 .glue_7        0x02013584        0x0 /home/gordo/devkitpro/devkitARM/bin/../lib/gcc/arm-eabi/4.4.0/../../../../arm-eabi/lib/thumb/libg.a(lib_a-strncpy.o)
 .glue_7        0x02013584        0x0 /home/gordo/devkitpro/devkitARM/bin/../lib/gcc/arm-eabi/4.4.0/../../../../arm-eabi/lib/thumb/libg.a(lib_a-svfiscanf.o)
 .glue_7        0x02013584        0x0 /home/gordo/devkitpro/devkitARM/bin/../lib/gcc/arm-eabi/4.4.0/../../../../arm-eabi/lib/thumb/libg.a(lib_a-time.o)
 .glue_7        0x02013584        0x0 /home/gordo/devkitpro/devkitARM/bin/../lib/gcc/arm-eabi/4.4.0/../../../../arm-eabi/lib/thumb/libg.a(lib_a-ungetc.o)
 .glue_7        0x02013584        0x0 /home/gordo/devkitpro/devkitARM/bin/../lib/gcc/arm-eabi/4.4.0/../../../../arm-eabi/lib/thumb/libg.a(lib_a-vfiprintf.o)
 .glue_7        0x02013584        0x0 /home/gordo/devkitpro/devkitARM/bin/../lib/gcc/arm-eabi/4.4.0/../../../../arm-eabi/lib/thumb/libg.a(lib_a-vfprintf.o)
 .glue_7        0x02013584        0x0 /home/gordo/devkitpro/devkitARM/bin/../lib/gcc/arm-eabi/4.4.0/../../../../arm-eabi/lib/thumb/libg.a(lib_a-wcrtomb.o)
 .glue_7        0x02013584        0x0 /home/gordo/devkitpro/devkitARM/bin/../lib/gcc/arm-eabi/4.4.0/../../../../arm-eabi/lib/thumb/libg.a(lib_a-wcsrtombs.o)
 .glue_7        0x02013584        0x0 /home/gordo/devkitpro/devkitARM/bin/../lib/gcc/arm-eabi/4.4.0/../../../../arm-eabi/lib/thumb/libg.a(lib_a-wctomb_r.o)
 .glue_7        0x02013584        0x0 /home/gordo/devkitpro/devkitARM/bin/../lib/gcc/arm-eabi/4.4.0/../../../../arm-eabi/lib/thumb/libg.a(lib_a-wsetup.o)
 .glue_7        0x02013584        0x0 /home/gordo/devkitpro/devkitARM/bin/../lib/gcc/arm-eabi/4.4.0/../../../../arm-eabi/lib/thumb/libg.a(lib_a-ctype_.o)
 .glue_7        0x02013584        0x0 /home/gordo/devkitpro/devkitARM/bin/../lib/gcc/arm-eabi/4.4.0/../../../../arm-eabi/lib/thumb/libg.a(lib_a-dtoa.o)
 .glue_7        0x02013584        0x0 /home/gordo/devkitpro/devkitARM/bin/../lib/gcc/arm-eabi/4.4.0/../../../../arm-eabi/lib/thumb/libg.a(lib_a-fflush.o)
 .glue_7        0x02013584        0x0 /home/gordo/devkitpro/devkitARM/bin/../lib/gcc/arm-eabi/4.4.0/../../../../arm-eabi/lib/thumb/libg.a(lib_a-findfp.o)
 .glue_7        0x02013584        0x0 /home/gordo/devkitpro/devkitARM/bin/../lib/gcc/arm-eabi/4.4.0/../../../../arm-eabi/lib/thumb/libg.a(lib_a-freer.o)
 .glue_7        0x02013584        0x0 /home/gordo/devkitpro/devkitARM/bin/../lib/gcc/arm-eabi/4.4.0/../../../../arm-eabi/lib/thumb/libg.a(lib_a-fvwrite.o)
 .glue_7        0x02013584        0x0 /home/gordo/devkitpro/devkitARM/bin/../lib/gcc/arm-eabi/4.4.0/../../../../arm-eabi/lib/thumb/libg.a(lib_a-fwalk.o)
 .glue_7        0x02013584        0x0 /home/gordo/devkitpro/devkitARM/bin/../lib/gcc/arm-eabi/4.4.0/../../../../arm-eabi/lib/thumb/libg.a(lib_a-iswspace.o)
 .glue_7        0x02013584        0x0 /home/gordo/devkitpro/devkitARM/bin/../lib/gcc/arm-eabi/4.4.0/../../../../arm-eabi/lib/thumb/libg.a(lib_a-jp2uc.o)
 .glue_7        0x02013584        0x0 /home/gordo/devkitpro/devkitARM/bin/../lib/gcc/arm-eabi/4.4.0/../../../../arm-eabi/lib/thumb/libg.a(lib_a-locale.o)
 .glue_7        0x02013584        0x0 /home/gordo/devkitpro/devkitARM/bin/../lib/gcc/arm-eabi/4.4.0/../../../../arm-eabi/lib/thumb/libg.a(lib_a-makebuf.o)
 .glue_7        0x02013584        0x0 /home/gordo/devkitpro/devkitARM/bin/../lib/gcc/arm-eabi/4.4.0/../../../../arm-eabi/lib/thumb/libg.a(lib_a-mbrtowc.o)
 .glue_7        0x02013584        0x0 /home/gordo/devkitpro/devkitARM/bin/../lib/gcc/arm-eabi/4.4.0/../../../../arm-eabi/lib/thumb/libg.a(lib_a-mbtowc_r.o)
 .glue_7        0x02013584        0x0 /home/gordo/devkitpro/devkitARM/bin/../lib/gcc/arm-eabi/4.4.0/../../../../arm-eabi/lib/thumb/libg.a(lib_a-memchr.o)
 .glue_7        0x02013584        0x0 /home/gordo/devkitpro/devkitARM/bin/../lib/gcc/arm-eabi/4.4.0/../../../../arm-eabi/lib/thumb/libg.a(lib_a-mprec.o)
 .glue_7        0x02013584        0x0 /home/gordo/devkitpro/devkitARM/bin/../lib/gcc/arm-eabi/4.4.0/../../../../arm-eabi/lib/thumb/libg.a(lib_a-reallocr.o)
 .glue_7        0x02013584        0x0 /home/gordo/devkitpro/devkitARM/bin/../lib/gcc/arm-eabi/4.4.0/../../../../arm-eabi/lib/thumb/libg.a(lib_a-sccl.o)
 .glue_7        0x02013584        0x0 /home/gordo/devkitpro/devkitARM/bin/../lib/gcc/arm-eabi/4.4.0/../../../../arm-eabi/lib/thumb/libg.a(lib_a-s_isinfd.o)
 .glue_7        0x02013584        0x0 /home/gordo/devkitpro/devkitARM/bin/../lib/gcc/arm-eabi/4.4.0/../../../../arm-eabi/lib/thumb/libg.a(lib_a-s_isnand.o)
 .glue_7        0x02013584        0x0 /home/gordo/devkitpro/devkitARM/bin/../lib/gcc/arm-eabi/4.4.0/../../../../arm-eabi/lib/thumb/libg.a(lib_a-stdio.o)
 .glue_7        0x02013584        0x0 /home/gordo/devkitpro/devkitARM/bin/../lib/gcc/arm-eabi/4.4.0/../../../../arm-eabi/lib/thumb/libg.a(lib_a-strcmp.o)
 .glue_7        0x02013584        0x0 /home/gordo/devkitpro/devkitARM/bin/../lib/gcc/arm-eabi/4.4.0/../../../../arm-eabi/lib/thumb/libg.a(lib_a-strcpy.o)
 .glue_7        0x02013584        0x0 /home/gordo/devkitpro/devkitARM/bin/../lib/gcc/arm-eabi/4.4.0/../../../../arm-eabi/lib/thumb/libg.a(lib_a-strtol.o)
 .glue_7        0x02013584        0x0 /home/gordo/devkitpro/devkitARM/bin/../lib/gcc/arm-eabi/4.4.0/../../../../arm-eabi/lib/thumb/libg.a(lib_a-strtoul.o)
 .glue_7        0x02013584        0x0 /home/gordo/devkitpro/devkitARM/bin/../lib/gcc/arm-eabi/4.4.0/../../../../arm-eabi/lib/thumb/libg.a(lib_a-callocr.o)
 .glue_7        0x02013584        0x0 /home/gordo/devkitpro/devkitARM/bin/../lib/gcc/arm-eabi/4.4.0/../../../../arm-eabi/lib/thumb/libg.a(lib_a-fclose.o)
 .glue_7        0x02013584        0x0 /home/gordo/devkitpro/devkitARM/bin/../lib/gcc/arm-eabi/4.4.0/../../../../arm-eabi/lib/thumb/libsysbase.a(iosupport.o)
 .glue_7        0x02013584        0x0 /home/gordo/devkitpro/devkitARM/bin/../lib/gcc/arm-eabi/4.4.0/../../../../arm-eabi/lib/thumb/libsysbase.a(close.o)
 .glue_7        0x02013584        0x0 /home/gordo/devkitpro/devkitARM/bin/../lib/gcc/arm-eabi/4.4.0/../../../../arm-eabi/lib/thumb/libsysbase.a(fstat.o)
 .glue_7        0x02013584        0x0 /home/gordo/devkitpro/devkitARM/bin/../lib/gcc/arm-eabi/4.4.0/../../../../arm-eabi/lib/thumb/libsysbase.a(isatty.o)
 .glue_7        0x02013584        0x0 /home/gordo/devkitpro/devkitARM/bin/../lib/gcc/arm-eabi/4.4.0/../../../../arm-eabi/lib/thumb/libsysbase.a(lseek.o)
 .glue_7        0x02013584        0x0 /home/gordo/devkitpro/devkitARM/bin/../lib/gcc/arm-eabi/4.4.0/../../../../arm-eabi/lib/thumb/libsysbase.a(read.o)
 .glue_7        0x02013584        0x0 /home/gordo/devkitpro/devkitARM/bin/../lib/gcc/arm-eabi/4.4.0/../../../../arm-eabi/lib/thumb/libsysbase.a(sbrk.o)
 .glue_7        0x02013584        0x0 /home/gordo/devkitpro/devkitARM/bin/../lib/gcc/arm-eabi/4.4.0/../../../../arm-eabi/lib/thumb/libsysbase.a(times.o)
 .glue_7        0x02013584        0x0 /home/gordo/devkitpro/devkitARM/bin/../lib/gcc/arm-eabi/4.4.0/../../../../arm-eabi/lib/thumb/libsysbase.a(write.o)
 .glue_7        0x02013584        0x0 /home/gordo/devkitpro/devkitARM/bin/../lib/gcc/arm-eabi/4.4.0/../../../../arm-eabi/lib/thumb/libsysbase.a(malloc_vars.o)
 .glue_7        0x02013584        0x0 /home/gordo/devkitpro/devkitARM/bin/../lib/gcc/arm-eabi/4.4.0/../../../../arm-eabi/lib/thumb/libsysbase.a(build_argv.o)
 .glue_7        0x02013584        0x0 /home/gordo/devkitpro/devkitARM/bin/../lib/gcc/arm-eabi/4.4.0/../../../../arm-eabi/lib/thumb/libsysbase.a(handle_manager.o)
 .glue_7        0x02013584        0x0 /home/gordo/devkitpro/devkitARM/bin/../lib/gcc/arm-eabi/4.4.0/thumb/libgcc.a(_arm_cmpdf2.o)
 .glue_7        0x02013584        0x0 /home/gordo/devkitpro/devkitARM/bin/../lib/gcc/arm-eabi/4.4.0/thumb/libgcc.a(_arm_fixdfsi.o)
 .glue_7        0x02013584        0x0 /home/gordo/devkitpro/devkitARM/bin/../lib/gcc/arm-eabi/4.4.0/../../../../arm-eabi/lib/thumb/libg.a(lib_a-strncmp.o)
 .glue_7        0x02013584        0x0 /home/gordo/devkitpro/devkitARM/bin/../lib/gcc/arm-eabi/4.4.0/thumb/crtend.o
 .glue_7        0x02013584        0x0 /home/gordo/devkitpro/devkitARM/bin/../lib/gcc/arm-eabi/4.4.0/thumb/crtn.o
 *(.glue_7t)
 .glue_7t       0x02013584        0x0 /home/gordo/devkitpro/devkitARM/bin/../lib/gcc/arm-eabi/4.4.0/../../../../arm-eabi/lib/thumb/ds_arm9_crt0.o
 .glue_7t       0x02013584        0x0 /home/gordo/devkitpro/devkitARM/bin/../lib/gcc/arm-eabi/4.4.0/thumb/crti.o
 .glue_7t       0x02013584        0x0 /home/gordo/devkitpro/devkitARM/bin/../lib/gcc/arm-eabi/4.4.0/thumb/crtbegin.o
 .glue_7t       0x02013584        0x0 cclogo.o
 .glue_7t       0x02013584        0x0 aplist.o
 .glue_7t       0x02013584        0x0 brut.o
 .glue_7t       0x02013584        0x0 main.o
 .glue_7t       0x02013584        0x0 spi_driver.o
 .glue_7t       0x02013584        0x0 uart.o
 .glue_7t       0x02013584        0x0 /home/gordo/devkitpro/libnds/lib/libdswifi9.a(wifi_arm9.o)
 .glue_7t       0x02013584        0x0 /home/gordo/devkitpro/libnds/lib/libdswifi9.a(spinlock.o)
 .glue_7t       0x02013584        0x0 /home/gordo/devkitpro/libnds/lib/libdswifi9.a(sgIP.o)
 .glue_7t       0x02013584        0x0 /home/gordo/devkitpro/libnds/lib/libdswifi9.a(sgIP_ARP.o)
 .glue_7t       0x02013584        0x0 /home/gordo/devkitpro/libnds/lib/libdswifi9.a(sgIP_DHCP.o)
 .glue_7t       0x02013584        0x0 /home/gordo/devkitpro/libnds/lib/libdswifi9.a(sgIP_DNS.o)
 .glue_7t       0x02013584        0x0 /home/gordo/devkitpro/libnds/lib/libdswifi9.a(sgIP_Hub.o)
 .glue_7t       0x02013584        0x0 /home/gordo/devkitpro/libnds/lib/libdswifi9.a(sgIP_IP.o)
 .glue_7t       0x02013584        0x0 /home/gordo/devkitpro/libnds/lib/libdswifi9.a(sgIP_TCP.o)
 .glue_7t       0x02013584        0x0 /home/gordo/devkitpro/libnds/lib/libdswifi9.a(sgIP_UDP.o)
 .glue_7t       0x02013584        0x0 /home/gordo/devkitpro/libnds/lib/libdswifi9.a(sgIP_memblock.o)
 .glue_7t       0x02013584        0x0 /home/gordo/devkitpro/libnds/lib/libdswifi9.a(sgIP_sockets.o)
 .glue_7t       0x02013584        0x0 /home/gordo/devkitpro/libnds/lib/libdswifi9.a(sgIP_ICMP.o)
 .glue_7t       0x02013584        0x0 /home/gordo/devkitpro/libnds/lib/libnds9.a(background.o)
 .glue_7t       0x02013584        0x0 /home/gordo/devkitpro/libnds/lib/libnds9.a(console.o)
 .glue_7t       0x02013584        0x0 /home/gordo/devkitpro/libnds/lib/libnds9.a(decompress.o)
 .glue_7t       0x02013584        0x0 /home/gordo/devkitpro/libnds/lib/libnds9.a(initSystem.o)
 .glue_7t       0x02013584        0x0 /home/gordo/devkitpro/libnds/lib/libnds9.a(keys.o)
 .glue_7t       0x02013584        0x0 /home/gordo/devkitpro/libnds/lib/libnds9.a(system.o)
 .glue_7t       0x02013584        0x0 /home/gordo/devkitpro/libnds/lib/libnds9.a(touch.o)
 .glue_7t       0x02013584        0x0 /home/gordo/devkitpro/libnds/lib/libnds9.a(trig.o)
 .glue_7t       0x02013584        0x0 /home/gordo/devkitpro/libnds/lib/libnds9.a(video.o)
 .glue_7t       0x02013584        0x0 /home/gordo/devkitpro/libnds/lib/libnds9.a(fifosystem.o)
 .glue_7t       0x02013584        0x0 /home/gordo/devkitpro/libnds/lib/libnds9.a(interrupts.o)
 .glue_7t       0x02013584        0x0 /home/gordo/devkitpro/libnds/lib/libnds9.a(dcache.o)
 .glue_7t       0x02013584        0x0 /home/gordo/devkitpro/libnds/lib/libnds9.a(biosCalls.o)
 .glue_7t       0x02013584        0x0 /home/gordo/devkitpro/libnds/lib/libnds9.a(debugprint.o)
 .glue_7t       0x02013584        0x0 /home/gordo/devkitpro/libnds/lib/libnds9.a(interruptDispatcher.o)
 .glue_7t       0x02013584        0x0 /home/gordo/devkitpro/libnds/lib/libnds9.a(default_font.bin.o)
 .glue_7t       0x02013584        0x0 /home/gordo/devkitpro/devkitARM/bin/../lib/gcc/arm-eabi/4.4.0/thumb/libgcc.a(_udivsi3.o)
 .glue_7t       0x02013584        0x0 /home/gordo/devkitpro/devkitARM/bin/../lib/gcc/arm-eabi/4.4.0/thumb/libgcc.a(_divsi3.o)
 .glue_7t       0x02013584        0x0 /home/gordo/devkitpro/devkitARM/bin/../lib/gcc/arm-eabi/4.4.0/thumb/libgcc.a(_dvmd_tls.o)
 .glue_7t       0x02013584        0x0 /home/gordo/devkitpro/devkitARM/bin/../lib/gcc/arm-eabi/4.4.0/thumb/libgcc.a(_arm_addsubdf3.o)
 .glue_7t       0x02013584        0x0 /home/gordo/devkitpro/devkitARM/bin/../lib/gcc/arm-eabi/4.4.0/thumb/libgcc.a(_arm_muldivdf3.o)
 .glue_7t       0x02013584        0x0 /home/gordo/devkitpro/devkitARM/bin/../lib/gcc/arm-eabi/4.4.0/thumb/libgcc.a(_arm_fixunsdfsi.o)
 .glue_7t       0x02013584        0x0 /home/gordo/devkitpro/devkitARM/bin/../lib/gcc/arm-eabi/4.4.0/thumb/libgcc.a(_arm_truncdfsf2.o)
 .glue_7t       0x02013584        0x0 /home/gordo/devkitpro/devkitARM/bin/../lib/gcc/arm-eabi/4.4.0/thumb/libgcc.a(_arm_addsubsf3.o)
 .glue_7t       0x02013584        0x0 /home/gordo/devkitpro/devkitARM/bin/../lib/gcc/arm-eabi/4.4.0/thumb/libgcc.a(_arm_muldivsf3.o)
 .glue_7t       0x02013584        0x0 /home/gordo/devkitpro/devkitARM/bin/../lib/gcc/arm-eabi/4.4.0/thumb/libgcc.a(_arm_cmpsf2.o)
 .glue_7t       0x02013584        0x0 /home/gordo/devkitpro/devkitARM/bin/../lib/gcc/arm-eabi/4.4.0/thumb/libgcc.a(_arm_fixunssfsi.o)
 .glue_7t       0x02013584        0x0 /home/gordo/devkitpro/devkitARM/bin/../lib/gcc/arm-eabi/4.4.0/../../../../arm-eabi/lib/thumb/libg.a(lib_a-bsearch.o)
 .glue_7t       0x02013584        0x0 /home/gordo/devkitpro/devkitARM/bin/../lib/gcc/arm-eabi/4.4.0/../../../../arm-eabi/lib/thumb/libg.a(lib_a-errno.o)
 .glue_7t       0x02013584        0x0 /home/gordo/devkitpro/devkitARM/bin/../lib/gcc/arm-eabi/4.4.0/../../../../arm-eabi/lib/thumb/libg.a(lib_a-impure.o)
 .glue_7t       0x02013584        0x0 /home/gordo/devkitpro/devkitARM/bin/../lib/gcc/arm-eabi/4.4.0/../../../../arm-eabi/lib/thumb/libg.a(lib_a-init.o)
 .glue_7t       0x02013584        0x0 /home/gordo/devkitpro/devkitARM/bin/../lib/gcc/arm-eabi/4.4.0/../../../../arm-eabi/lib/thumb/libg.a(lib_a-iprintf.o)
 .glue_7t       0x02013584        0x0 /home/gordo/devkitpro/devkitARM/bin/../lib/gcc/arm-eabi/4.4.0/../../../../arm-eabi/lib/thumb/libg.a(lib_a-malloc.o)
 .glue_7t       0x02013584        0x0 /home/gordo/devkitpro/devkitARM/bin/../lib/gcc/arm-eabi/4.4.0/../../../../arm-eabi/lib/thumb/libg.a(lib_a-mallocr.o)
 .glue_7t       0x02013584        0x0 /home/gordo/devkitpro/devkitARM/bin/../lib/gcc/arm-eabi/4.4.0/../../../../arm-eabi/lib/thumb/libg.a(lib_a-memcmp.o)
 .glue_7t       0x02013584        0x0 /home/gordo/devkitpro/devkitARM/bin/../lib/gcc/arm-eabi/4.4.0/../../../../arm-eabi/lib/thumb/libg.a(lib_a-memcpy.o)
 .glue_7t       0x02013584        0x0 /home/gordo/devkitpro/devkitARM/bin/../lib/gcc/arm-eabi/4.4.0/../../../../arm-eabi/lib/thumb/libg.a(lib_a-memmove.o)
 .glue_7t       0x02013584        0x0 /home/gordo/devkitpro/devkitARM/bin/../lib/gcc/arm-eabi/4.4.0/../../../../arm-eabi/lib/thumb/libg.a(lib_a-memset.o)
 .glue_7t       0x02013584        0x0 /home/gordo/devkitpro/devkitARM/bin/../lib/gcc/arm-eabi/4.4.0/../../../../arm-eabi/lib/thumb/libg.a(lib_a-mlock.o)
 .glue_7t       0x02013584        0x0 /home/gordo/devkitpro/devkitARM/bin/../lib/gcc/arm-eabi/4.4.0/../../../../arm-eabi/lib/thumb/libg.a(lib_a-printf.o)
 .glue_7t       0x02013584        0x0 /home/gordo/devkitpro/devkitARM/bin/../lib/gcc/arm-eabi/4.4.0/../../../../arm-eabi/lib/thumb/libg.a(lib_a-setvbuf.o)
 .glue_7t       0x02013584        0x0 /home/gordo/devkitpro/devkitARM/bin/../lib/gcc/arm-eabi/4.4.0/../../../../arm-eabi/lib/thumb/libg.a(lib_a-siscanf.o)
 .glue_7t       0x02013584        0x0 /home/gordo/devkitpro/devkitARM/bin/../lib/gcc/arm-eabi/4.4.0/../../../../arm-eabi/lib/thumb/libg.a(lib_a-strlen.o)
 .glue_7t       0x02013584        0x0 /home/gordo/devkitpro/devkitARM/bin/../lib/gcc/arm-eabi/4.4.0/../../../../arm-eabi/lib/thumb/libg.a(lib_a-strncpy.o)
 .glue_7t       0x02013584        0x0 /home/gordo/devkitpro/devkitARM/bin/../lib/gcc/arm-eabi/4.4.0/../../../../arm-eabi/lib/thumb/libg.a(lib_a-svfiscanf.o)
 .glue_7t       0x02013584        0x0 /home/gordo/devkitpro/devkitARM/bin/../lib/gcc/arm-eabi/4.4.0/../../../../arm-eabi/lib/thumb/libg.a(lib_a-time.o)
 .glue_7t       0x02013584        0x0 /home/gordo/devkitpro/devkitARM/bin/../lib/gcc/arm-eabi/4.4.0/../../../../arm-eabi/lib/thumb/libg.a(lib_a-ungetc.o)
 .glue_7t       0x02013584        0x0 /home/gordo/devkitpro/devkitARM/bin/../lib/gcc/arm-eabi/4.4.0/../../../../arm-eabi/lib/thumb/libg.a(lib_a-vfiprintf.o)
 .glue_7t       0x02013584        0x0 /home/gordo/devkitpro/devkitARM/bin/../lib/gcc/arm-eabi/4.4.0/../../../../arm-eabi/lib/thumb/libg.a(lib_a-vfprintf.o)
 .glue_7t       0x02013584        0x0 /home/gordo/devkitpro/devkitARM/bin/../lib/gcc/arm-eabi/4.4.0/../../../../arm-eabi/lib/thumb/libg.a(lib_a-wcrtomb.o)
 .glue_7t       0x02013584        0x0 /home/gordo/devkitpro/devkitARM/bin/../lib/gcc/arm-eabi/4.4.0/../../../../arm-eabi/lib/thumb/libg.a(lib_a-wcsrtombs.o)
 .glue_7t       0x02013584        0x0 /home/gordo/devkitpro/devkitARM/bin/../lib/gcc/arm-eabi/4.4.0/../../../../arm-eabi/lib/thumb/libg.a(lib_a-wctomb_r.o)
 .glue_7t       0x02013584        0x0 /home/gordo/devkitpro/devkitARM/bin/../lib/gcc/arm-eabi/4.4.0/../../../../arm-eabi/lib/thumb/libg.a(lib_a-wsetup.o)
 .glue_7t       0x02013584        0x0 /home/gordo/devkitpro/devkitARM/bin/../lib/gcc/arm-eabi/4.4.0/../../../../arm-eabi/lib/thumb/libg.a(lib_a-ctype_.o)
 .glue_7t       0x02013584        0x0 /home/gordo/devkitpro/devkitARM/bin/../lib/gcc/arm-eabi/4.4.0/../../../../arm-eabi/lib/thumb/libg.a(lib_a-dtoa.o)
 .glue_7t       0x02013584        0x0 /home/gordo/devkitpro/devkitARM/bin/../lib/gcc/arm-eabi/4.4.0/../../../../arm-eabi/lib/thumb/libg.a(lib_a-fflush.o)
 .glue_7t       0x02013584        0x0 /home/gordo/devkitpro/devkitARM/bin/../lib/gcc/arm-eabi/4.4.0/../../../../arm-eabi/lib/thumb/libg.a(lib_a-findfp.o)
 .glue_7t       0x02013584        0x0 /home/gordo/devkitpro/devkitARM/bin/../lib/gcc/arm-eabi/4.4.0/../../../../arm-eabi/lib/thumb/libg.a(lib_a-freer.o)
 .glue_7t       0x02013584        0x0 /home/gordo/devkitpro/devkitARM/bin/../lib/gcc/arm-eabi/4.4.0/../../../../arm-eabi/lib/thumb/libg.a(lib_a-fvwrite.o)
 .glue_7t       0x02013584        0x0 /home/gordo/devkitpro/devkitARM/bin/../lib/gcc/arm-eabi/4.4.0/../../../../arm-eabi/lib/thumb/libg.a(lib_a-fwalk.o)
 .glue_7t       0x02013584        0x0 /home/gordo/devkitpro/devkitARM/bin/../lib/gcc/arm-eabi/4.4.0/../../../../arm-eabi/lib/thumb/libg.a(lib_a-iswspace.o)
 .glue_7t       0x02013584        0x0 /home/gordo/devkitpro/devkitARM/bin/../lib/gcc/arm-eabi/4.4.0/../../../../arm-eabi/lib/thumb/libg.a(lib_a-jp2uc.o)
 .glue_7t       0x02013584        0x0 /home/gordo/devkitpro/devkitARM/bin/../lib/gcc/arm-eabi/4.4.0/../../../../arm-eabi/lib/thumb/libg.a(lib_a-locale.o)
 .glue_7t       0x02013584        0x0 /home/gordo/devkitpro/devkitARM/bin/../lib/gcc/arm-eabi/4.4.0/../../../../arm-eabi/lib/thumb/libg.a(lib_a-makebuf.o)
 .glue_7t       0x02013584        0x0 /home/gordo/devkitpro/devkitARM/bin/../lib/gcc/arm-eabi/4.4.0/../../../../arm-eabi/lib/thumb/libg.a(lib_a-mbrtowc.o)
 .glue_7t       0x02013584        0x0 /home/gordo/devkitpro/devkitARM/bin/../lib/gcc/arm-eabi/4.4.0/../../../../arm-eabi/lib/thumb/libg.a(lib_a-mbtowc_r.o)
 .glue_7t       0x02013584        0x0 /home/gordo/devkitpro/devkitARM/bin/../lib/gcc/arm-eabi/4.4.0/../../../../arm-eabi/lib/thumb/libg.a(lib_a-memchr.o)
 .glue_7t       0x02013584        0x0 /home/gordo/devkitpro/devkitARM/bin/../lib/gcc/arm-eabi/4.4.0/../../../../arm-eabi/lib/thumb/libg.a(lib_a-mprec.o)
 .glue_7t       0x02013584        0x0 /home/gordo/devkitpro/devkitARM/bin/../lib/gcc/arm-eabi/4.4.0/../../../../arm-eabi/lib/thumb/libg.a(lib_a-reallocr.o)
 .glue_7t       0x02013584        0x0 /home/gordo/devkitpro/devkitARM/bin/../lib/gcc/arm-eabi/4.4.0/../../../../arm-eabi/lib/thumb/libg.a(lib_a-sccl.o)
 .glue_7t       0x02013584        0x0 /home/gordo/devkitpro/devkitARM/bin/../lib/gcc/arm-eabi/4.4.0/../../../../arm-eabi/lib/thumb/libg.a(lib_a-s_isinfd.o)
 .glue_7t       0x02013584        0x0 /home/gordo/devkitpro/devkitARM/bin/../lib/gcc/arm-eabi/4.4.0/../../../../arm-eabi/lib/thumb/libg.a(lib_a-s_isnand.o)
 .glue_7t       0x02013584        0x0 /home/gordo/devkitpro/devkitARM/bin/../lib/gcc/arm-eabi/4.4.0/../../../../arm-eabi/lib/thumb/libg.a(lib_a-stdio.o)
 .glue_7t       0x02013584        0x0 /home/gordo/devkitpro/devkitARM/bin/../lib/gcc/arm-eabi/4.4.0/../../../../arm-eabi/lib/thumb/libg.a(lib_a-strcmp.o)
 .glue_7t       0x02013584        0x0 /home/gordo/devkitpro/devkitARM/bin/../lib/gcc/arm-eabi/4.4.0/../../../../arm-eabi/lib/thumb/libg.a(lib_a-strcpy.o)
 .glue_7t       0x02013584        0x0 /home/gordo/devkitpro/devkitARM/bin/../lib/gcc/arm-eabi/4.4.0/../../../../arm-eabi/lib/thumb/libg.a(lib_a-strtol.o)
 .glue_7t       0x02013584        0x0 /home/gordo/devkitpro/devkitARM/bin/../lib/gcc/arm-eabi/4.4.0/../../../../arm-eabi/lib/thumb/libg.a(lib_a-strtoul.o)
 .glue_7t       0x02013584        0x0 /home/gordo/devkitpro/devkitARM/bin/../lib/gcc/arm-eabi/4.4.0/../../../../arm-eabi/lib/thumb/libg.a(lib_a-callocr.o)
 .glue_7t       0x02013584        0x0 /home/gordo/devkitpro/devkitARM/bin/../lib/gcc/arm-eabi/4.4.0/../../../../arm-eabi/lib/thumb/libg.a(lib_a-fclose.o)
 .glue_7t       0x02013584        0x0 /home/gordo/devkitpro/devkitARM/bin/../lib/gcc/arm-eabi/4.4.0/../../../../arm-eabi/lib/thumb/libsysbase.a(iosupport.o)
 .glue_7t       0x02013584        0x0 /home/gordo/devkitpro/devkitARM/bin/../lib/gcc/arm-eabi/4.4.0/../../../../arm-eabi/lib/thumb/libsysbase.a(close.o)
 .glue_7t       0x02013584        0x0 /home/gordo/devkitpro/devkitARM/bin/../lib/gcc/arm-eabi/4.4.0/../../../../arm-eabi/lib/thumb/libsysbase.a(fstat.o)
 .glue_7t       0x02013584        0x0 /home/gordo/devkitpro/devkitARM/bin/../lib/gcc/arm-eabi/4.4.0/../../../../arm-eabi/lib/thumb/libsysbase.a(isatty.o)
 .glue_7t       0x02013584        0x0 /home/gordo/devkitpro/devkitARM/bin/../lib/gcc/arm-eabi/4.4.0/../../../../arm-eabi/lib/thumb/libsysbase.a(lseek.o)
 .glue_7t       0x02013584        0x0 /home/gordo/devkitpro/devkitARM/bin/../lib/gcc/arm-eabi/4.4.0/../../../../arm-eabi/lib/thumb/libsysbase.a(read.o)
 .glue_7t       0x02013584        0x0 /home/gordo/devkitpro/devkitARM/bin/../lib/gcc/arm-eabi/4.4.0/../../../../arm-eabi/lib/thumb/libsysbase.a(sbrk.o)
 .glue_7t       0x02013584        0x0 /home/gordo/devkitpro/devkitARM/bin/../lib/gcc/arm-eabi/4.4.0/../../../../arm-eabi/lib/thumb/libsysbase.a(times.o)
 .glue_7t       0x02013584        0x0 /home/gordo/devkitpro/devkitARM/bin/../lib/gcc/arm-eabi/4.4.0/../../../../arm-eabi/lib/thumb/libsysbase.a(write.o)
 .glue_7t       0x02013584        0x0 /home/gordo/devkitpro/devkitARM/bin/../lib/gcc/arm-eabi/4.4.0/../../../../arm-eabi/lib/thumb/libsysbase.a(malloc_vars.o)
 .glue_7t       0x02013584        0x0 /home/gordo/devkitpro/devkitARM/bin/../lib/gcc/arm-eabi/4.4.0/../../../../arm-eabi/lib/thumb/libsysbase.a(build_argv.o)
 .glue_7t       0x02013584        0x0 /home/gordo/devkitpro/devkitARM/bin/../lib/gcc/arm-eabi/4.4.0/../../../../arm-eabi/lib/thumb/libsysbase.a(handle_manager.o)
 .glue_7t       0x02013584        0x0 /home/gordo/devkitpro/devkitARM/bin/../lib/gcc/arm-eabi/4.4.0/thumb/libgcc.a(_arm_cmpdf2.o)
 .glue_7t       0x02013584        0x0 /home/gordo/devkitpro/devkitARM/bin/../lib/gcc/arm-eabi/4.4.0/thumb/libgcc.a(_arm_fixdfsi.o)
 .glue_7t       0x02013584        0x0 /home/gordo/devkitpro/devkitARM/bin/../lib/gcc/arm-eabi/4.4.0/../../../../arm-eabi/lib/thumb/libg.a(lib_a-strncmp.o)
 .glue_7t       0x02013584        0x0 /home/gordo/devkitpro/devkitARM/bin/../lib/gcc/arm-eabi/4.4.0/thumb/crtend.o
 .glue_7t       0x02013584        0x0 /home/gordo/devkitpro/devkitARM/bin/../lib/gcc/arm-eabi/4.4.0/thumb/crtn.o
                0x02013584                . = ALIGN (0x4)

.vfp11_veneer   0x00000000        0x0
 .vfp11_veneer  0x00000000        0x0 /home/gordo/devkitpro/devkitARM/bin/../lib/gcc/arm-eabi/4.4.0/../../../../arm-eabi/lib/thumb/ds_arm9_crt0.o
 .vfp11_veneer  0x00000000        0x0 /home/gordo/devkitpro/devkitARM/bin/../lib/gcc/arm-eabi/4.4.0/thumb/crti.o
 .vfp11_veneer  0x00000000        0x0 /home/gordo/devkitpro/devkitARM/bin/../lib/gcc/arm-eabi/4.4.0/thumb/crtbegin.o
 .vfp11_veneer  0x00000000        0x0 cclogo.o
 .vfp11_veneer  0x00000000        0x0 aplist.o
 .vfp11_veneer  0x00000000        0x0 brut.o
 .vfp11_veneer  0x00000000        0x0 main.o
 .vfp11_veneer  0x00000000        0x0 spi_driver.o
 .vfp11_veneer  0x00000000        0x0 uart.o
 .vfp11_veneer  0x00000000        0x0 /home/gordo/devkitpro/libnds/lib/libdswifi9.a(wifi_arm9.o)
 .vfp11_veneer  0x00000000        0x0 /home/gordo/devkitpro/libnds/lib/libdswifi9.a(spinlock.o)
 .vfp11_veneer  0x00000000        0x0 /home/gordo/devkitpro/libnds/lib/libdswifi9.a(sgIP.o)
 .vfp11_veneer  0x00000000        0x0 /home/gordo/devkitpro/libnds/lib/libdswifi9.a(sgIP_ARP.o)
 .vfp11_veneer  0x00000000        0x0 /home/gordo/devkitpro/libnds/lib/libdswifi9.a(sgIP_DHCP.o)
 .vfp11_veneer  0x00000000        0x0 /home/gordo/devkitpro/libnds/lib/libdswifi9.a(sgIP_DNS.o)
 .vfp11_veneer  0x00000000        0x0 /home/gordo/devkitpro/libnds/lib/libdswifi9.a(sgIP_Hub.o)
 .vfp11_veneer  0x00000000        0x0 /home/gordo/devkitpro/libnds/lib/libdswifi9.a(sgIP_IP.o)
 .vfp11_veneer  0x00000000        0x0 /home/gordo/devkitpro/libnds/lib/libdswifi9.a(sgIP_TCP.o)
 .vfp11_veneer  0x00000000        0x0 /home/gordo/devkitpro/libnds/lib/libdswifi9.a(sgIP_UDP.o)
 .vfp11_veneer  0x00000000        0x0 /home/gordo/devkitpro/libnds/lib/libdswifi9.a(sgIP_memblock.o)
 .vfp11_veneer  0x00000000        0x0 /home/gordo/devkitpro/libnds/lib/libdswifi9.a(sgIP_sockets.o)
 .vfp11_veneer  0x00000000        0x0 /home/gordo/devkitpro/libnds/lib/libdswifi9.a(sgIP_ICMP.o)
 .vfp11_veneer  0x00000000        0x0 /home/gordo/devkitpro/libnds/lib/libnds9.a(background.o)
 .vfp11_veneer  0x00000000        0x0 /home/gordo/devkitpro/libnds/lib/libnds9.a(console.o)
 .vfp11_veneer  0x00000000        0x0 /home/gordo/devkitpro/libnds/lib/libnds9.a(decompress.o)
 .vfp11_veneer  0x00000000        0x0 /home/gordo/devkitpro/libnds/lib/libnds9.a(initSystem.o)
 .vfp11_veneer  0x00000000        0x0 /home/gordo/devkitpro/libnds/lib/libnds9.a(keys.o)
 .vfp11_veneer  0x00000000        0x0 /home/gordo/devkitpro/libnds/lib/libnds9.a(system.o)
 .vfp11_veneer  0x00000000        0x0 /home/gordo/devkitpro/libnds/lib/libnds9.a(touch.o)
 .vfp11_veneer  0x00000000        0x0 /home/gordo/devkitpro/libnds/lib/libnds9.a(trig.o)
 .vfp11_veneer  0x00000000        0x0 /home/gordo/devkitpro/libnds/lib/libnds9.a(video.o)
 .vfp11_veneer  0x00000000        0x0 /home/gordo/devkitpro/libnds/lib/libnds9.a(fifosystem.o)
 .vfp11_veneer  0x00000000        0x0 /home/gordo/devkitpro/libnds/lib/libnds9.a(interrupts.o)
 .vfp11_veneer  0x00000000        0x0 /home/gordo/devkitpro/libnds/lib/libnds9.a(dcache.o)
 .vfp11_veneer  0x00000000        0x0 /home/gordo/devkitpro/libnds/lib/libnds9.a(biosCalls.o)
 .vfp11_veneer  0x00000000        0x0 /home/gordo/devkitpro/libnds/lib/libnds9.a(debugprint.o)
 .vfp11_veneer  0x00000000        0x0 /home/gordo/devkitpro/libnds/lib/libnds9.a(interruptDispatcher.o)
 .vfp11_veneer  0x00000000        0x0 /home/gordo/devkitpro/libnds/lib/libnds9.a(default_font.bin.o)
 .vfp11_veneer  0x00000000        0x0 /home/gordo/devkitpro/devkitARM/bin/../lib/gcc/arm-eabi/4.4.0/thumb/libgcc.a(_udivsi3.o)
 .vfp11_veneer  0x00000000        0x0 /home/gordo/devkitpro/devkitARM/bin/../lib/gcc/arm-eabi/4.4.0/thumb/libgcc.a(_divsi3.o)
 .vfp11_veneer  0x00000000        0x0 /home/gordo/devkitpro/devkitARM/bin/../lib/gcc/arm-eabi/4.4.0/thumb/libgcc.a(_dvmd_tls.o)
 .vfp11_veneer  0x00000000        0x0 /home/gordo/devkitpro/devkitARM/bin/../lib/gcc/arm-eabi/4.4.0/thumb/libgcc.a(_arm_addsubdf3.o)
 .vfp11_veneer  0x00000000        0x0 /home/gordo/devkitpro/devkitARM/bin/../lib/gcc/arm-eabi/4.4.0/thumb/libgcc.a(_arm_muldivdf3.o)
 .vfp11_veneer  0x00000000        0x0 /home/gordo/devkitpro/devkitARM/bin/../lib/gcc/arm-eabi/4.4.0/thumb/libgcc.a(_arm_fixunsdfsi.o)
 .vfp11_veneer  0x00000000        0x0 /home/gordo/devkitpro/devkitARM/bin/../lib/gcc/arm-eabi/4.4.0/thumb/libgcc.a(_arm_truncdfsf2.o)
 .vfp11_veneer  0x00000000        0x0 /home/gordo/devkitpro/devkitARM/bin/../lib/gcc/arm-eabi/4.4.0/thumb/libgcc.a(_arm_addsubsf3.o)
 .vfp11_veneer  0x00000000        0x0 /home/gordo/devkitpro/devkitARM/bin/../lib/gcc/arm-eabi/4.4.0/thumb/libgcc.a(_arm_muldivsf3.o)
 .vfp11_veneer  0x00000000        0x0 /home/gordo/devkitpro/devkitARM/bin/../lib/gcc/arm-eabi/4.4.0/thumb/libgcc.a(_arm_cmpsf2.o)
 .vfp11_veneer  0x00000000        0x0 /home/gordo/devkitpro/devkitARM/bin/../lib/gcc/arm-eabi/4.4.0/thumb/libgcc.a(_arm_fixunssfsi.o)
 .vfp11_veneer  0x00000000        0x0 /home/gordo/devkitpro/devkitARM/bin/../lib/gcc/arm-eabi/4.4.0/../../../../arm-eabi/lib/thumb/libg.a(lib_a-bsearch.o)
 .vfp11_veneer  0x00000000        0x0 /home/gordo/devkitpro/devkitARM/bin/../lib/gcc/arm-eabi/4.4.0/../../../../arm-eabi/lib/thumb/libg.a(lib_a-errno.o)
 .vfp11_veneer  0x00000000        0x0 /home/gordo/devkitpro/devkitARM/bin/../lib/gcc/arm-eabi/4.4.0/../../../../arm-eabi/lib/thumb/libg.a(lib_a-impure.o)
 .vfp11_veneer  0x00000000        0x0 /home/gordo/devkitpro/devkitARM/bin/../lib/gcc/arm-eabi/4.4.0/../../../../arm-eabi/lib/thumb/libg.a(lib_a-init.o)
 .vfp11_veneer  0x00000000        0x0 /home/gordo/devkitpro/devkitARM/bin/../lib/gcc/arm-eabi/4.4.0/../../../../arm-eabi/lib/thumb/libg.a(lib_a-iprintf.o)
 .vfp11_veneer  0x00000000        0x0 /home/gordo/devkitpro/devkitARM/bin/../lib/gcc/arm-eabi/4.4.0/../../../../arm-eabi/lib/thumb/libg.a(lib_a-malloc.o)
 .vfp11_veneer  0x00000000        0x0 /home/gordo/devkitpro/devkitARM/bin/../lib/gcc/arm-eabi/4.4.0/../../../../arm-eabi/lib/thumb/libg.a(lib_a-mallocr.o)
 .vfp11_veneer  0x00000000        0x0 /home/gordo/devkitpro/devkitARM/bin/../lib/gcc/arm-eabi/4.4.0/../../../../arm-eabi/lib/thumb/libg.a(lib_a-memcmp.o)
 .vfp11_veneer  0x00000000        0x0 /home/gordo/devkitpro/devkitARM/bin/../lib/gcc/arm-eabi/4.4.0/../../../../arm-eabi/lib/thumb/libg.a(lib_a-memcpy.o)
 .vfp11_veneer  0x00000000        0x0 /home/gordo/devkitpro/devkitARM/bin/../lib/gcc/arm-eabi/4.4.0/../../../../arm-eabi/lib/thumb/libg.a(lib_a-memmove.o)
 .vfp11_veneer  0x00000000        0x0 /home/gordo/devkitpro/devkitARM/bin/../lib/gcc/arm-eabi/4.4.0/../../../../arm-eabi/lib/thumb/libg.a(lib_a-memset.o)
 .vfp11_veneer  0x00000000        0x0 /home/gordo/devkitpro/devkitARM/bin/../lib/gcc/arm-eabi/4.4.0/../../../../arm-eabi/lib/thumb/libg.a(lib_a-mlock.o)
 .vfp11_veneer  0x00000000        0x0 /home/gordo/devkitpro/devkitARM/bin/../lib/gcc/arm-eabi/4.4.0/../../../../arm-eabi/lib/thumb/libg.a(lib_a-printf.o)
 .vfp11_veneer  0x00000000        0x0 /home/gordo/devkitpro/devkitARM/bin/../lib/gcc/arm-eabi/4.4.0/../../../../arm-eabi/lib/thumb/libg.a(lib_a-setvbuf.o)
 .vfp11_veneer  0x00000000        0x0 /home/gordo/devkitpro/devkitARM/bin/../lib/gcc/arm-eabi/4.4.0/../../../../arm-eabi/lib/thumb/libg.a(lib_a-siscanf.o)
 .vfp11_veneer  0x00000000        0x0 /home/gordo/devkitpro/devkitARM/bin/../lib/gcc/arm-eabi/4.4.0/../../../../arm-eabi/lib/thumb/libg.a(lib_a-strlen.o)
 .vfp11_veneer  0x00000000        0x0 /home/gordo/devkitpro/devkitARM/bin/../lib/gcc/arm-eabi/4.4.0/../../../../arm-eabi/lib/thumb/libg.a(lib_a-strncpy.o)
 .vfp11_veneer  0x00000000        0x0 /home/gordo/devkitpro/devkitARM/bin/../lib/gcc/arm-eabi/4.4.0/../../../../arm-eabi/lib/thumb/libg.a(lib_a-svfiscanf.o)
 .vfp11_veneer  0x00000000        0x0 /home/gordo/devkitpro/devkitARM/bin/../lib/gcc/arm-eabi/4.4.0/../../../../arm-eabi/lib/thumb/libg.a(lib_a-time.o)
 .vfp11_veneer  0x00000000        0x0 /home/gordo/devkitpro/devkitARM/bin/../lib/gcc/arm-eabi/4.4.0/../../../../arm-eabi/lib/thumb/libg.a(lib_a-ungetc.o)
 .vfp11_veneer  0x00000000        0x0 /home/gordo/devkitpro/devkitARM/bin/../lib/gcc/arm-eabi/4.4.0/../../../../arm-eabi/lib/thumb/libg.a(lib_a-vfiprintf.o)
 .vfp11_veneer  0x00000000        0x0 /home/gordo/devkitpro/devkitARM/bin/../lib/gcc/arm-eabi/4.4.0/../../../../arm-eabi/lib/thumb/libg.a(lib_a-vfprintf.o)
 .vfp11_veneer  0x00000000        0x0 /home/gordo/devkitpro/devkitARM/bin/../lib/gcc/arm-eabi/4.4.0/../../../../arm-eabi/lib/thumb/libg.a(lib_a-wcrtomb.o)
 .vfp11_veneer  0x00000000        0x0 /home/gordo/devkitpro/devkitARM/bin/../lib/gcc/arm-eabi/4.4.0/../../../../arm-eabi/lib/thumb/libg.a(lib_a-wcsrtombs.o)
 .vfp11_veneer  0x00000000        0x0 /home/gordo/devkitpro/devkitARM/bin/../lib/gcc/arm-eabi/4.4.0/../../../../arm-eabi/lib/thumb/libg.a(lib_a-wctomb_r.o)
 .vfp11_veneer  0x00000000        0x0 /home/gordo/devkitpro/devkitARM/bin/../lib/gcc/arm-eabi/4.4.0/../../../../arm-eabi/lib/thumb/libg.a(lib_a-wsetup.o)
 .vfp11_veneer  0x00000000        0x0 /home/gordo/devkitpro/devkitARM/bin/../lib/gcc/arm-eabi/4.4.0/../../../../arm-eabi/lib/thumb/libg.a(lib_a-ctype_.o)
 .vfp11_veneer  0x00000000        0x0 /home/gordo/devkitpro/devkitARM/bin/../lib/gcc/arm-eabi/4.4.0/../../../../arm-eabi/lib/thumb/libg.a(lib_a-dtoa.o)
 .vfp11_veneer  0x00000000        0x0 /home/gordo/devkitpro/devkitARM/bin/../lib/gcc/arm-eabi/4.4.0/../../../../arm-eabi/lib/thumb/libg.a(lib_a-fflush.o)
 .vfp11_veneer  0x00000000        0x0 /home/gordo/devkitpro/devkitARM/bin/../lib/gcc/arm-eabi/4.4.0/../../../../arm-eabi/lib/thumb/libg.a(lib_a-findfp.o)
 .vfp11_veneer  0x00000000        0x0 /home/gordo/devkitpro/devkitARM/bin/../lib/gcc/arm-eabi/4.4.0/../../../../arm-eabi/lib/thumb/libg.a(lib_a-freer.o)
 .vfp11_veneer  0x00000000        0x0 /home/gordo/devkitpro/devkitARM/bin/../lib/gcc/arm-eabi/4.4.0/../../../../arm-eabi/lib/thumb/libg.a(lib_a-fvwrite.o)
 .vfp11_veneer  0x00000000        0x0 /home/gordo/devkitpro/devkitARM/bin/../lib/gcc/arm-eabi/4.4.0/../../../../arm-eabi/lib/thumb/libg.a(lib_a-fwalk.o)
 .vfp11_veneer  0x00000000        0x0 /home/gordo/devkitpro/devkitARM/bin/../lib/gcc/arm-eabi/4.4.0/../../../../arm-eabi/lib/thumb/libg.a(lib_a-iswspace.o)
 .vfp11_veneer  0x00000000        0x0 /home/gordo/devkitpro/devkitARM/bin/../lib/gcc/arm-eabi/4.4.0/../../../../arm-eabi/lib/thumb/libg.a(lib_a-jp2uc.o)
 .vfp11_veneer  0x00000000        0x0 /home/gordo/devkitpro/devkitARM/bin/../lib/gcc/arm-eabi/4.4.0/../../../../arm-eabi/lib/thumb/libg.a(lib_a-locale.o)
 .vfp11_veneer  0x00000000        0x0 /home/gordo/devkitpro/devkitARM/bin/../lib/gcc/arm-eabi/4.4.0/../../../../arm-eabi/lib/thumb/libg.a(lib_a-makebuf.o)
 .vfp11_veneer  0x00000000        0x0 /home/gordo/devkitpro/devkitARM/bin/../lib/gcc/arm-eabi/4.4.0/../../../../arm-eabi/lib/thumb/libg.a(lib_a-mbrtowc.o)
 .vfp11_veneer  0x00000000        0x0 /home/gordo/devkitpro/devkitARM/bin/../lib/gcc/arm-eabi/4.4.0/../../../../arm-eabi/lib/thumb/libg.a(lib_a-mbtowc_r.o)
 .vfp11_veneer  0x00000000        0x0 /home/gordo/devkitpro/devkitARM/bin/../lib/gcc/arm-eabi/4.4.0/../../../../arm-eabi/lib/thumb/libg.a(lib_a-memchr.o)
 .vfp11_veneer  0x00000000        0x0 /home/gordo/devkitpro/devkitARM/bin/../lib/gcc/arm-eabi/4.4.0/../../../../arm-eabi/lib/thumb/libg.a(lib_a-mprec.o)
 .vfp11_veneer  0x00000000        0x0 /home/gordo/devkitpro/devkitARM/bin/../lib/gcc/arm-eabi/4.4.0/../../../../arm-eabi/lib/thumb/libg.a(lib_a-reallocr.o)
 .vfp11_veneer  0x00000000        0x0 /home/gordo/devkitpro/devkitARM/bin/../lib/gcc/arm-eabi/4.4.0/../../../../arm-eabi/lib/thumb/libg.a(lib_a-sccl.o)
 .vfp11_veneer  0x00000000        0x0 /home/gordo/devkitpro/devkitARM/bin/../lib/gcc/arm-eabi/4.4.0/../../../../arm-eabi/lib/thumb/libg.a(lib_a-s_isinfd.o)
 .vfp11_veneer  0x00000000        0x0 /home/gordo/devkitpro/devkitARM/bin/../lib/gcc/arm-eabi/4.4.0/../../../../arm-eabi/lib/thumb/libg.a(lib_a-s_isnand.o)
 .vfp11_veneer  0x00000000        0x0 /home/gordo/devkitpro/devkitARM/bin/../lib/gcc/arm-eabi/4.4.0/../../../../arm-eabi/lib/thumb/libg.a(lib_a-stdio.o)
 .vfp11_veneer  0x00000000        0x0 /home/gordo/devkitpro/devkitARM/bin/../lib/gcc/arm-eabi/4.4.0/../../../../arm-eabi/lib/thumb/libg.a(lib_a-strcmp.o)
 .vfp11_veneer  0x00000000        0x0 /home/gordo/devkitpro/devkitARM/bin/../lib/gcc/arm-eabi/4.4.0/../../../../arm-eabi/lib/thumb/libg.a(lib_a-strcpy.o)
 .vfp11_veneer  0x00000000        0x0 /home/gordo/devkitpro/devkitARM/bin/../lib/gcc/arm-eabi/4.4.0/../../../../arm-eabi/lib/thumb/libg.a(lib_a-strtol.o)
 .vfp11_veneer  0x00000000        0x0 /home/gordo/devkitpro/devkitARM/bin/../lib/gcc/arm-eabi/4.4.0/../../../../arm-eabi/lib/thumb/libg.a(lib_a-strtoul.o)
 .vfp11_veneer  0x00000000        0x0 /home/gordo/devkitpro/devkitARM/bin/../lib/gcc/arm-eabi/4.4.0/../../../../arm-eabi/lib/thumb/libg.a(lib_a-callocr.o)
 .vfp11_veneer  0x00000000        0x0 /home/gordo/devkitpro/devkitARM/bin/../lib/gcc/arm-eabi/4.4.0/../../../../arm-eabi/lib/thumb/libg.a(lib_a-fclose.o)
 .vfp11_veneer  0x00000000        0x0 /home/gordo/devkitpro/devkitARM/bin/../lib/gcc/arm-eabi/4.4.0/../../../../arm-eabi/lib/thumb/libsysbase.a(iosupport.o)
 .vfp11_veneer  0x00000000        0x0 /home/gordo/devkitpro/devkitARM/bin/../lib/gcc/arm-eabi/4.4.0/../../../../arm-eabi/lib/thumb/libsysbase.a(close.o)
 .vfp11_veneer  0x00000000        0x0 /home/gordo/devkitpro/devkitARM/bin/../lib/gcc/arm-eabi/4.4.0/../../../../arm-eabi/lib/thumb/libsysbase.a(fstat.o)
 .vfp11_veneer  0x00000000        0x0 /home/gordo/devkitpro/devkitARM/bin/../lib/gcc/arm-eabi/4.4.0/../../../../arm-eabi/lib/thumb/libsysbase.a(isatty.o)
 .vfp11_veneer  0x00000000        0x0 /home/gordo/devkitpro/devkitARM/bin/../lib/gcc/arm-eabi/4.4.0/../../../../arm-eabi/lib/thumb/libsysbase.a(lseek.o)
 .vfp11_veneer  0x00000000        0x0 /home/gordo/devkitpro/devkitARM/bin/../lib/gcc/arm-eabi/4.4.0/../../../../arm-eabi/lib/thumb/libsysbase.a(read.o)
 .vfp11_veneer  0x00000000        0x0 /home/gordo/devkitpro/devkitARM/bin/../lib/gcc/arm-eabi/4.4.0/../../../../arm-eabi/lib/thumb/libsysbase.a(sbrk.o)
 .vfp11_veneer  0x00000000        0x0 /home/gordo/devkitpro/devkitARM/bin/../lib/gcc/arm-eabi/4.4.0/../../../../arm-eabi/lib/thumb/libsysbase.a(times.o)
 .vfp11_veneer  0x00000000        0x0 /home/gordo/devkitpro/devkitARM/bin/../lib/gcc/arm-eabi/4.4.0/../../../../arm-eabi/lib/thumb/libsysbase.a(write.o)
 .vfp11_veneer  0x00000000        0x0 /home/gordo/devkitpro/devkitARM/bin/../lib/gcc/arm-eabi/4.4.0/../../../../arm-eabi/lib/thumb/libsysbase.a(malloc_vars.o)
 .vfp11_veneer  0x00000000        0x0 /home/gordo/devkitpro/devkitARM/bin/../lib/gcc/arm-eabi/4.4.0/../../../../arm-eabi/lib/thumb/libsysbase.a(build_argv.o)
 .vfp11_veneer  0x00000000        0x0 /home/gordo/devkitpro/devkitARM/bin/../lib/gcc/arm-eabi/4.4.0/../../../../arm-eabi/lib/thumb/libsysbase.a(handle_manager.o)
 .vfp11_veneer  0x00000000        0x0 /home/gordo/devkitpro/devkitARM/bin/../lib/gcc/arm-eabi/4.4.0/thumb/libgcc.a(_arm_cmpdf2.o)
 .vfp11_veneer  0x00000000        0x0 /home/gordo/devkitpro/devkitARM/bin/../lib/gcc/arm-eabi/4.4.0/thumb/libgcc.a(_arm_fixdfsi.o)
 .vfp11_veneer  0x00000000        0x0 /home/gordo/devkitpro/devkitARM/bin/../lib/gcc/arm-eabi/4.4.0/../../../../arm-eabi/lib/thumb/libg.a(lib_a-strncmp.o)
 .vfp11_veneer  0x00000000        0x0 /home/gordo/devkitpro/devkitARM/bin/../lib/gcc/arm-eabi/4.4.0/thumb/crtend.o
 .vfp11_veneer  0x00000000        0x0 /home/gordo/devkitpro/devkitARM/bin/../lib/gcc/arm-eabi/4.4.0/thumb/crtn.o

.v4_bx          0x00000000        0x0
 .v4_bx         0x00000000        0x0 /home/gordo/devkitpro/devkitARM/bin/../lib/gcc/arm-eabi/4.4.0/../../../../arm-eabi/lib/thumb/ds_arm9_crt0.o
 .v4_bx         0x00000000        0x0 /home/gordo/devkitpro/devkitARM/bin/../lib/gcc/arm-eabi/4.4.0/thumb/crti.o
 .v4_bx         0x00000000        0x0 /home/gordo/devkitpro/devkitARM/bin/../lib/gcc/arm-eabi/4.4.0/thumb/crtbegin.o
 .v4_bx         0x00000000        0x0 cclogo.o
 .v4_bx         0x00000000        0x0 aplist.o
 .v4_bx         0x00000000        0x0 brut.o
 .v4_bx         0x00000000        0x0 main.o
 .v4_bx         0x00000000        0x0 spi_driver.o
 .v4_bx         0x00000000        0x0 uart.o
 .v4_bx         0x00000000        0x0 /home/gordo/devkitpro/libnds/lib/libdswifi9.a(wifi_arm9.o)
 .v4_bx         0x00000000        0x0 /home/gordo/devkitpro/libnds/lib/libdswifi9.a(spinlock.o)
 .v4_bx         0x00000000        0x0 /home/gordo/devkitpro/libnds/lib/libdswifi9.a(sgIP.o)
 .v4_bx         0x00000000        0x0 /home/gordo/devkitpro/libnds/lib/libdswifi9.a(sgIP_ARP.o)
 .v4_bx         0x00000000        0x0 /home/gordo/devkitpro/libnds/lib/libdswifi9.a(sgIP_DHCP.o)
 .v4_bx         0x00000000        0x0 /home/gordo/devkitpro/libnds/lib/libdswifi9.a(sgIP_DNS.o)
 .v4_bx         0x00000000        0x0 /home/gordo/devkitpro/libnds/lib/libdswifi9.a(sgIP_Hub.o)
 .v4_bx         0x00000000        0x0 /home/gordo/devkitpro/libnds/lib/libdswifi9.a(sgIP_IP.o)
 .v4_bx         0x00000000        0x0 /home/gordo/devkitpro/libnds/lib/libdswifi9.a(sgIP_TCP.o)
 .v4_bx         0x00000000        0x0 /home/gordo/devkitpro/libnds/lib/libdswifi9.a(sgIP_UDP.o)
 .v4_bx         0x00000000        0x0 /home/gordo/devkitpro/libnds/lib/libdswifi9.a(sgIP_memblock.o)
 .v4_bx         0x00000000        0x0 /home/gordo/devkitpro/libnds/lib/libdswifi9.a(sgIP_sockets.o)
 .v4_bx         0x00000000        0x0 /home/gordo/devkitpro/libnds/lib/libdswifi9.a(sgIP_ICMP.o)
 .v4_bx         0x00000000        0x0 /home/gordo/devkitpro/libnds/lib/libnds9.a(background.o)
 .v4_bx         0x00000000        0x0 /home/gordo/devkitpro/libnds/lib/libnds9.a(console.o)
 .v4_bx         0x00000000        0x0 /home/gordo/devkitpro/libnds/lib/libnds9.a(decompress.o)
 .v4_bx         0x00000000        0x0 /home/gordo/devkitpro/libnds/lib/libnds9.a(initSystem.o)
 .v4_bx         0x00000000        0x0 /home/gordo/devkitpro/libnds/lib/libnds9.a(keys.o)
 .v4_bx         0x00000000        0x0 /home/gordo/devkitpro/libnds/lib/libnds9.a(system.o)
 .v4_bx         0x00000000        0x0 /home/gordo/devkitpro/libnds/lib/libnds9.a(touch.o)
 .v4_bx         0x00000000        0x0 /home/gordo/devkitpro/libnds/lib/libnds9.a(trig.o)
 .v4_bx         0x00000000        0x0 /home/gordo/devkitpro/libnds/lib/libnds9.a(video.o)
 .v4_bx         0x00000000        0x0 /home/gordo/devkitpro/libnds/lib/libnds9.a(fifosystem.o)
 .v4_bx         0x00000000        0x0 /home/gordo/devkitpro/libnds/lib/libnds9.a(interrupts.o)
 .v4_bx         0x00000000        0x0 /home/gordo/devkitpro/libnds/lib/libnds9.a(dcache.o)
 .v4_bx         0x00000000        0x0 /home/gordo/devkitpro/libnds/lib/libnds9.a(biosCalls.o)
 .v4_bx         0x00000000        0x0 /home/gordo/devkitpro/libnds/lib/libnds9.a(debugprint.o)
 .v4_bx         0x00000000        0x0 /home/gordo/devkitpro/libnds/lib/libnds9.a(interruptDispatcher.o)
 .v4_bx         0x00000000        0x0 /home/gordo/devkitpro/libnds/lib/libnds9.a(default_font.bin.o)
 .v4_bx         0x00000000        0x0 /home/gordo/devkitpro/devkitARM/bin/../lib/gcc/arm-eabi/4.4.0/thumb/libgcc.a(_udivsi3.o)
 .v4_bx         0x00000000        0x0 /home/gordo/devkitpro/devkitARM/bin/../lib/gcc/arm-eabi/4.4.0/thumb/libgcc.a(_divsi3.o)
 .v4_bx         0x00000000        0x0 /home/gordo/devkitpro/devkitARM/bin/../lib/gcc/arm-eabi/4.4.0/thumb/libgcc.a(_dvmd_tls.o)
 .v4_bx         0x00000000        0x0 /home/gordo/devkitpro/devkitARM/bin/../lib/gcc/arm-eabi/4.4.0/thumb/libgcc.a(_arm_addsubdf3.o)
 .v4_bx         0x00000000        0x0 /home/gordo/devkitpro/devkitARM/bin/../lib/gcc/arm-eabi/4.4.0/thumb/libgcc.a(_arm_muldivdf3.o)
 .v4_bx         0x00000000        0x0 /home/gordo/devkitpro/devkitARM/bin/../lib/gcc/arm-eabi/4.4.0/thumb/libgcc.a(_arm_fixunsdfsi.o)
 .v4_bx         0x00000000        0x0 /home/gordo/devkitpro/devkitARM/bin/../lib/gcc/arm-eabi/4.4.0/thumb/libgcc.a(_arm_truncdfsf2.o)
 .v4_bx         0x00000000        0x0 /home/gordo/devkitpro/devkitARM/bin/../lib/gcc/arm-eabi/4.4.0/thumb/libgcc.a(_arm_addsubsf3.o)
 .v4_bx         0x00000000        0x0 /home/gordo/devkitpro/devkitARM/bin/../lib/gcc/arm-eabi/4.4.0/thumb/libgcc.a(_arm_muldivsf3.o)
 .v4_bx         0x00000000        0x0 /home/gordo/devkitpro/devkitARM/bin/../lib/gcc/arm-eabi/4.4.0/thumb/libgcc.a(_arm_cmpsf2.o)
 .v4_bx         0x00000000        0x0 /home/gordo/devkitpro/devkitARM/bin/../lib/gcc/arm-eabi/4.4.0/thumb/libgcc.a(_arm_fixunssfsi.o)
 .v4_bx         0x00000000        0x0 /home/gordo/devkitpro/devkitARM/bin/../lib/gcc/arm-eabi/4.4.0/../../../../arm-eabi/lib/thumb/libg.a(lib_a-bsearch.o)
 .v4_bx         0x00000000        0x0 /home/gordo/devkitpro/devkitARM/bin/../lib/gcc/arm-eabi/4.4.0/../../../../arm-eabi/lib/thumb/libg.a(lib_a-errno.o)
 .v4_bx         0x00000000        0x0 /home/gordo/devkitpro/devkitARM/bin/../lib/gcc/arm-eabi/4.4.0/../../../../arm-eabi/lib/thumb/libg.a(lib_a-impure.o)
 .v4_bx         0x00000000        0x0 /home/gordo/devkitpro/devkitARM/bin/../lib/gcc/arm-eabi/4.4.0/../../../../arm-eabi/lib/thumb/libg.a(lib_a-init.o)
 .v4_bx         0x00000000        0x0 /home/gordo/devkitpro/devkitARM/bin/../lib/gcc/arm-eabi/4.4.0/../../../../arm-eabi/lib/thumb/libg.a(lib_a-iprintf.o)
 .v4_bx         0x00000000        0x0 /home/gordo/devkitpro/devkitARM/bin/../lib/gcc/arm-eabi/4.4.0/../../../../arm-eabi/lib/thumb/libg.a(lib_a-malloc.o)
 .v4_bx         0x00000000        0x0 /home/gordo/devkitpro/devkitARM/bin/../lib/gcc/arm-eabi/4.4.0/../../../../arm-eabi/lib/thumb/libg.a(lib_a-mallocr.o)
 .v4_bx         0x00000000        0x0 /home/gordo/devkitpro/devkitARM/bin/../lib/gcc/arm-eabi/4.4.0/../../../../arm-eabi/lib/thumb/libg.a(lib_a-memcmp.o)
 .v4_bx         0x00000000        0x0 /home/gordo/devkitpro/devkitARM/bin/../lib/gcc/arm-eabi/4.4.0/../../../../arm-eabi/lib/thumb/libg.a(lib_a-memcpy.o)
 .v4_bx         0x00000000        0x0 /home/gordo/devkitpro/devkitARM/bin/../lib/gcc/arm-eabi/4.4.0/../../../../arm-eabi/lib/thumb/libg.a(lib_a-memmove.o)
 .v4_bx         0x00000000        0x0 /home/gordo/devkitpro/devkitARM/bin/../lib/gcc/arm-eabi/4.4.0/../../../../arm-eabi/lib/thumb/libg.a(lib_a-memset.o)
 .v4_bx         0x00000000        0x0 /home/gordo/devkitpro/devkitARM/bin/../lib/gcc/arm-eabi/4.4.0/../../../../arm-eabi/lib/thumb/libg.a(lib_a-mlock.o)
 .v4_bx         0x00000000        0x0 /home/gordo/devkitpro/devkitARM/bin/../lib/gcc/arm-eabi/4.4.0/../../../../arm-eabi/lib/thumb/libg.a(lib_a-printf.o)
 .v4_bx         0x00000000        0x0 /home/gordo/devkitpro/devkitARM/bin/../lib/gcc/arm-eabi/4.4.0/../../../../arm-eabi/lib/thumb/libg.a(lib_a-setvbuf.o)
 .v4_bx         0x00000000        0x0 /home/gordo/devkitpro/devkitARM/bin/../lib/gcc/arm-eabi/4.4.0/../../../../arm-eabi/lib/thumb/libg.a(lib_a-siscanf.o)
 .v4_bx         0x00000000        0x0 /home/gordo/devkitpro/devkitARM/bin/../lib/gcc/arm-eabi/4.4.0/../../../../arm-eabi/lib/thumb/libg.a(lib_a-strlen.o)
 .v4_bx         0x00000000        0x0 /home/gordo/devkitpro/devkitARM/bin/../lib/gcc/arm-eabi/4.4.0/../../../../arm-eabi/lib/thumb/libg.a(lib_a-strncpy.o)
 .v4_bx         0x00000000        0x0 /home/gordo/devkitpro/devkitARM/bin/../lib/gcc/arm-eabi/4.4.0/../../../../arm-eabi/lib/thumb/libg.a(lib_a-svfiscanf.o)
 .v4_bx         0x00000000        0x0 /home/gordo/devkitpro/devkitARM/bin/../lib/gcc/arm-eabi/4.4.0/../../../../arm-eabi/lib/thumb/libg.a(lib_a-time.o)
 .v4_bx         0x00000000        0x0 /home/gordo/devkitpro/devkitARM/bin/../lib/gcc/arm-eabi/4.4.0/../../../../arm-eabi/lib/thumb/libg.a(lib_a-ungetc.o)
 .v4_bx         0x00000000        0x0 /home/gordo/devkitpro/devkitARM/bin/../lib/gcc/arm-eabi/4.4.0/../../../../arm-eabi/lib/thumb/libg.a(lib_a-vfiprintf.o)
 .v4_bx         0x00000000        0x0 /home/gordo/devkitpro/devkitARM/bin/../lib/gcc/arm-eabi/4.4.0/../../../../arm-eabi/lib/thumb/libg.a(lib_a-vfprintf.o)
 .v4_bx         0x00000000        0x0 /home/gordo/devkitpro/devkitARM/bin/../lib/gcc/arm-eabi/4.4.0/../../../../arm-eabi/lib/thumb/libg.a(lib_a-wcrtomb.o)
 .v4_bx         0x00000000        0x0 /home/gordo/devkitpro/devkitARM/bin/../lib/gcc/arm-eabi/4.4.0/../../../../arm-eabi/lib/thumb/libg.a(lib_a-wcsrtombs.o)
 .v4_bx         0x00000000        0x0 /home/gordo/devkitpro/devkitARM/bin/../lib/gcc/arm-eabi/4.4.0/../../../../arm-eabi/lib/thumb/libg.a(lib_a-wctomb_r.o)
 .v4_bx         0x00000000        0x0 /home/gordo/devkitpro/devkitARM/bin/../lib/gcc/arm-eabi/4.4.0/../../../../arm-eabi/lib/thumb/libg.a(lib_a-wsetup.o)
 .v4_bx         0x00000000        0x0 /home/gordo/devkitpro/devkitARM/bin/../lib/gcc/arm-eabi/4.4.0/../../../../arm-eabi/lib/thumb/libg.a(lib_a-ctype_.o)
 .v4_bx         0x00000000        0x0 /home/gordo/devkitpro/devkitARM/bin/../lib/gcc/arm-eabi/4.4.0/../../../../arm-eabi/lib/thumb/libg.a(lib_a-dtoa.o)
 .v4_bx         0x00000000        0x0 /home/gordo/devkitpro/devkitARM/bin/../lib/gcc/arm-eabi/4.4.0/../../../../arm-eabi/lib/thumb/libg.a(lib_a-fflush.o)
 .v4_bx         0x00000000        0x0 /home/gordo/devkitpro/devkitARM/bin/../lib/gcc/arm-eabi/4.4.0/../../../../arm-eabi/lib/thumb/libg.a(lib_a-findfp.o)
 .v4_bx         0x00000000        0x0 /home/gordo/devkitpro/devkitARM/bin/../lib/gcc/arm-eabi/4.4.0/../../../../arm-eabi/lib/thumb/libg.a(lib_a-freer.o)
 .v4_bx         0x00000000        0x0 /home/gordo/devkitpro/devkitARM/bin/../lib/gcc/arm-eabi/4.4.0/../../../../arm-eabi/lib/thumb/libg.a(lib_a-fvwrite.o)
 .v4_bx         0x00000000        0x0 /home/gordo/devkitpro/devkitARM/bin/../lib/gcc/arm-eabi/4.4.0/../../../../arm-eabi/lib/thumb/libg.a(lib_a-fwalk.o)
 .v4_bx         0x00000000        0x0 /home/gordo/devkitpro/devkitARM/bin/../lib/gcc/arm-eabi/4.4.0/../../../../arm-eabi/lib/thumb/libg.a(lib_a-iswspace.o)
 .v4_bx         0x00000000        0x0 /home/gordo/devkitpro/devkitARM/bin/../lib/gcc/arm-eabi/4.4.0/../../../../arm-eabi/lib/thumb/libg.a(lib_a-jp2uc.o)
 .v4_bx         0x00000000        0x0 /home/gordo/devkitpro/devkitARM/bin/../lib/gcc/arm-eabi/4.4.0/../../../../arm-eabi/lib/thumb/libg.a(lib_a-locale.o)
 .v4_bx         0x00000000        0x0 /home/gordo/devkitpro/devkitARM/bin/../lib/gcc/arm-eabi/4.4.0/../../../../arm-eabi/lib/thumb/libg.a(lib_a-makebuf.o)
 .v4_bx         0x00000000        0x0 /home/gordo/devkitpro/devkitARM/bin/../lib/gcc/arm-eabi/4.4.0/../../../../arm-eabi/lib/thumb/libg.a(lib_a-mbrtowc.o)
 .v4_bx         0x00000000        0x0 /home/gordo/devkitpro/devkitARM/bin/../lib/gcc/arm-eabi/4.4.0/../../../../arm-eabi/lib/thumb/libg.a(lib_a-mbtowc_r.o)
 .v4_bx         0x00000000        0x0 /home/gordo/devkitpro/devkitARM/bin/../lib/gcc/arm-eabi/4.4.0/../../../../arm-eabi/lib/thumb/libg.a(lib_a-memchr.o)
 .v4_bx         0x00000000        0x0 /home/gordo/devkitpro/devkitARM/bin/../lib/gcc/arm-eabi/4.4.0/../../../../arm-eabi/lib/thumb/libg.a(lib_a-mprec.o)
 .v4_bx         0x00000000        0x0 /home/gordo/devkitpro/devkitARM/bin/../lib/gcc/arm-eabi/4.4.0/../../../../arm-eabi/lib/thumb/libg.a(lib_a-reallocr.o)
 .v4_bx         0x00000000        0x0 /home/gordo/devkitpro/devkitARM/bin/../lib/gcc/arm-eabi/4.4.0/../../../../arm-eabi/lib/thumb/libg.a(lib_a-sccl.o)
 .v4_bx         0x00000000        0x0 /home/gordo/devkitpro/devkitARM/bin/../lib/gcc/arm-eabi/4.4.0/../../../../arm-eabi/lib/thumb/libg.a(lib_a-s_isinfd.o)
 .v4_bx         0x00000000        0x0 /home/gordo/devkitpro/devkitARM/bin/../lib/gcc/arm-eabi/4.4.0/../../../../arm-eabi/lib/thumb/libg.a(lib_a-s_isnand.o)
 .v4_bx         0x00000000        0x0 /home/gordo/devkitpro/devkitARM/bin/../lib/gcc/arm-eabi/4.4.0/../../../../arm-eabi/lib/thumb/libg.a(lib_a-stdio.o)
 .v4_bx         0x00000000        0x0 /home/gordo/devkitpro/devkitARM/bin/../lib/gcc/arm-eabi/4.4.0/../../../../arm-eabi/lib/thumb/libg.a(lib_a-strcmp.o)
 .v4_bx         0x00000000        0x0 /home/gordo/devkitpro/devkitARM/bin/../lib/gcc/arm-eabi/4.4.0/../../../../arm-eabi/lib/thumb/libg.a(lib_a-strcpy.o)
 .v4_bx         0x00000000        0x0 /home/gordo/devkitpro/devkitARM/bin/../lib/gcc/arm-eabi/4.4.0/../../../../arm-eabi/lib/thumb/libg.a(lib_a-strtol.o)
 .v4_bx         0x00000000        0x0 /home/gordo/devkitpro/devkitARM/bin/../lib/gcc/arm-eabi/4.4.0/../../../../arm-eabi/lib/thumb/libg.a(lib_a-strtoul.o)
 .v4_bx         0x00000000        0x0 /home/gordo/devkitpro/devkitARM/bin/../lib/gcc/arm-eabi/4.4.0/../../../../arm-eabi/lib/thumb/libg.a(lib_a-callocr.o)
 .v4_bx         0x00000000        0x0 /home/gordo/devkitpro/devkitARM/bin/../lib/gcc/arm-eabi/4.4.0/../../../../arm-eabi/lib/thumb/libg.a(lib_a-fclose.o)
 .v4_bx         0x00000000        0x0 /home/gordo/devkitpro/devkitARM/bin/../lib/gcc/arm-eabi/4.4.0/../../../../arm-eabi/lib/thumb/libsysbase.a(iosupport.o)
 .v4_bx         0x00000000        0x0 /home/gordo/devkitpro/devkitARM/bin/../lib/gcc/arm-eabi/4.4.0/../../../../arm-eabi/lib/thumb/libsysbase.a(close.o)
 .v4_bx         0x00000000        0x0 /home/gordo/devkitpro/devkitARM/bin/../lib/gcc/arm-eabi/4.4.0/../../../../arm-eabi/lib/thumb/libsysbase.a(fstat.o)
 .v4_bx         0x00000000        0x0 /home/gordo/devkitpro/devkitARM/bin/../lib/gcc/arm-eabi/4.4.0/../../../../arm-eabi/lib/thumb/libsysbase.a(isatty.o)
 .v4_bx         0x00000000        0x0 /home/gordo/devkitpro/devkitARM/bin/../lib/gcc/arm-eabi/4.4.0/../../../../arm-eabi/lib/thumb/libsysbase.a(lseek.o)
 .v4_bx         0x00000000        0x0 /home/gordo/devkitpro/devkitARM/bin/../lib/gcc/arm-eabi/4.4.0/../../../../arm-eabi/lib/thumb/libsysbase.a(read.o)
 .v4_bx         0x00000000        0x0 /home/gordo/devkitpro/devkitARM/bin/../lib/gcc/arm-eabi/4.4.0/../../../../arm-eabi/lib/thumb/libsysbase.a(sbrk.o)
 .v4_bx         0x00000000        0x0 /home/gordo/devkitpro/devkitARM/bin/../lib/gcc/arm-eabi/4.4.0/../../../../arm-eabi/lib/thumb/libsysbase.a(times.o)
 .v4_bx         0x00000000        0x0 /home/gordo/devkitpro/devkitARM/bin/../lib/gcc/arm-eabi/4.4.0/../../../../arm-eabi/lib/thumb/libsysbase.a(write.o)
 .v4_bx         0x00000000        0x0 /home/gordo/devkitpro/devkitARM/bin/../lib/gcc/arm-eabi/4.4.0/../../../../arm-eabi/lib/thumb/libsysbase.a(malloc_vars.o)
 .v4_bx         0x00000000        0x0 /home/gordo/devkitpro/devkitARM/bin/../lib/gcc/arm-eabi/4.4.0/../../../../arm-eabi/lib/thumb/libsysbase.a(build_argv.o)
 .v4_bx         0x00000000        0x0 /home/gordo/devkitpro/devkitARM/bin/../lib/gcc/arm-eabi/4.4.0/../../../../arm-eabi/lib/thumb/libsysbase.a(handle_manager.o)
 .v4_bx         0x00000000        0x0 /home/gordo/devkitpro/devkitARM/bin/../lib/gcc/arm-eabi/4.4.0/thumb/libgcc.a(_arm_cmpdf2.o)
 .v4_bx         0x00000000        0x0 /home/gordo/devkitpro/devkitARM/bin/../lib/gcc/arm-eabi/4.4.0/thumb/libgcc.a(_arm_fixdfsi.o)
 .v4_bx         0x00000000        0x0 /home/gordo/devkitpro/devkitARM/bin/../lib/gcc/arm-eabi/4.4.0/../../../../arm-eabi/lib/thumb/libg.a(lib_a-strncmp.o)
 .v4_bx         0x00000000        0x0 /home/gordo/devkitpro/devkitARM/bin/../lib/gcc/arm-eabi/4.4.0/thumb/crtend.o
 .v4_bx         0x00000000        0x0 /home/gordo/devkitpro/devkitARM/bin/../lib/gcc/arm-eabi/4.4.0/thumb/crtn.o

.fini           0x02013584        0xc
 *(.fini)
 .fini          0x02013584        0x4 /home/gordo/devkitpro/devkitARM/bin/../lib/gcc/arm-eabi/4.4.0/thumb/crti.o
                0x02013584                _fini
 .fini          0x02013588        0x8 /home/gordo/devkitpro/devkitARM/bin/../lib/gcc/arm-eabi/4.4.0/thumb/crtn.o
                0x02013590                __text_end = .

.rodata         0x02013590     0x9c5c
 *(.rodata)
 .rodata        0x02013590     0x3800 cclogo.o
                0x02013590                cclogoBitmap
 .rodata        0x02016d90       0x3c brut.o
 .rodata        0x02016dcc        0x4 main.o
 .rodata        0x02016dd0       0x14 uart.o
 .rodata        0x02016de4       0x14 /home/gordo/devkitpro/libnds/lib/libdswifi9.a(wifi_arm9.o)
 .rodata        0x02016df8       0x54 /home/gordo/devkitpro/libnds/lib/libdswifi9.a(sgIP_TCP.o)
 .rodata        0x02016e4c      0x18c /home/gordo/devkitpro/libnds/lib/libnds9.a(console.o)
 .rodata        0x02016fd8       0x14 /home/gordo/devkitpro/libnds/lib/libnds9.a(decompress.o)
 .rodata        0x02016fec     0x2004 /home/gordo/devkitpro/libnds/lib/libnds9.a(default_font.bin.o)
                0x02018fec                default_font_bin_end
                0x02018fec                default_font_bin_size
                0x02016fec                default_font_bin
 .rodata        0x02018ff0        0x4 /home/gordo/devkitpro/devkitARM/bin/../lib/gcc/arm-eabi/4.4.0/../../../../arm-eabi/lib/thumb/libg.a(lib_a-impure.o)
                0x02018ff0                _global_impure_ptr
 .rodata        0x02018ff4      0x340 /home/gordo/devkitpro/devkitARM/bin/../lib/gcc/arm-eabi/4.4.0/../../../../arm-eabi/lib/thumb/libg.a(lib_a-svfiscanf.o)
 .rodata        0x02019334      0x184 /home/gordo/devkitpro/devkitARM/bin/../lib/gcc/arm-eabi/4.4.0/../../../../arm-eabi/lib/thumb/libg.a(lib_a-vfiprintf.o)
 .rodata        0x020194b8      0x184 /home/gordo/devkitpro/devkitARM/bin/../lib/gcc/arm-eabi/4.4.0/../../../../arm-eabi/lib/thumb/libg.a(lib_a-vfprintf.o)
 .rodata        0x0201963c      0x104 /home/gordo/devkitpro/devkitARM/bin/../lib/gcc/arm-eabi/4.4.0/../../../../arm-eabi/lib/thumb/libg.a(lib_a-ctype_.o)
                0x0201963c                _ctype_
 .rodata        0x02019740     0x34f0 /home/gordo/devkitpro/devkitARM/bin/../lib/gcc/arm-eabi/4.4.0/../../../../arm-eabi/lib/thumb/libg.a(lib_a-jp2uc.o)
 .rodata        0x0201cc30       0xb8 /home/gordo/devkitpro/devkitARM/bin/../lib/gcc/arm-eabi/4.4.0/../../../../arm-eabi/lib/thumb/libg.a(lib_a-locale.o)
 .rodata        0x0201cce8       0xa8 /home/gordo/devkitpro/devkitARM/bin/../lib/gcc/arm-eabi/4.4.0/../../../../arm-eabi/lib/thumb/libg.a(lib_a-mbtowc_r.o)
 .rodata        0x0201cd90      0x128 /home/gordo/devkitpro/devkitARM/bin/../lib/gcc/arm-eabi/4.4.0/../../../../arm-eabi/lib/thumb/libg.a(lib_a-mprec.o)
                0x0201ce90                __mprec_tinytens
                0x0201cd90                __mprec_tens
                0x0201ce68                __mprec_bigtens
 .rodata        0x0201ceb8       0x5c /home/gordo/devkitpro/devkitARM/bin/../lib/gcc/arm-eabi/4.4.0/../../../../arm-eabi/lib/thumb/libsysbase.a(iosupport.o)
                0x0201ceb8                dotab_stdnull
 *all.rodata*(*)
 *(.roda)
 *(.rodata.*)
 .rodata.str1.4
                0x0201cf14      0x107 main.o
                                0x10c (size before relaxing)
 *fill*         0x0201d01b        0x1 ff
 .rodata.str1.4
                0x0201d01c       0xb6 /home/gordo/devkitpro/libnds/lib/libdswifi9.a(wifi_arm9.o)
                                 0xb8 (size before relaxing)
 *fill*         0x0201d0d2        0x2 ff
 .rodata.str1.4
                0x0201d0d4       0x17 /home/gordo/devkitpro/libnds/lib/libdswifi9.a(sgIP_DHCP.o)
                                 0x18 (size before relaxing)
 *fill*         0x0201d0eb        0x1 ff
 .rodata.str1.4
                0x0201d0ec       0x44 /home/gordo/devkitpro/libnds/lib/libnds9.a(console.o)
 .rodata.str1.4
                0x0201d130        0x2 /home/gordo/devkitpro/devkitARM/bin/../lib/gcc/arm-eabi/4.4.0/../../../../arm-eabi/lib/thumb/libg.a(lib_a-impure.o)
                                  0x4 (size before relaxing)
 *fill*         0x0201d132        0x2 ff
 .rodata.str1.4
                0x0201d134       0x2f /home/gordo/devkitpro/devkitARM/bin/../lib/gcc/arm-eabi/4.4.0/../../../../arm-eabi/lib/thumb/libg.a(lib_a-vfiprintf.o)
                                 0x30 (size before relaxing)
 *fill*         0x0201d163        0x1 ff
 .rodata.str1.4
                0x0201d164       0x12 /home/gordo/devkitpro/devkitARM/bin/../lib/gcc/arm-eabi/4.4.0/../../../../arm-eabi/lib/thumb/libg.a(lib_a-vfprintf.o)
                                 0x44 (size before relaxing)
 *fill*         0x0201d176        0x2 ff
 .rodata.str1.4
                0x0201d178       0x1e /home/gordo/devkitpro/devkitARM/bin/../lib/gcc/arm-eabi/4.4.0/../../../../arm-eabi/lib/thumb/libg.a(lib_a-wctomb_r.o)
                                 0x20 (size before relaxing)
 *fill*         0x0201d196        0x2 ff
 .rodata.str1.4
                0x0201d198       0x10 /home/gordo/devkitpro/devkitARM/bin/../lib/gcc/arm-eabi/4.4.0/../../../../arm-eabi/lib/thumb/libg.a(lib_a-dtoa.o)
                                 0x14 (size before relaxing)
 .rodata.str1.4
                0x00000000       0x20 /home/gordo/devkitpro/devkitARM/bin/../lib/gcc/arm-eabi/4.4.0/../../../../arm-eabi/lib/thumb/libg.a(lib_a-iswspace.o)
 .rodata.str1.4
                0x0201d1a8       0x3a /home/gordo/devkitpro/devkitARM/bin/../lib/gcc/arm-eabi/4.4.0/../../../../arm-eabi/lib/thumb/libg.a(lib_a-locale.o)
                                 0x64 (size before relaxing)
 .rodata.str1.4
                0x00000000        0x4 /home/gordo/devkitpro/devkitARM/bin/../lib/gcc/arm-eabi/4.4.0/../../../../arm-eabi/lib/thumb/libg.a(lib_a-mbrtowc.o)
 .rodata.str1.4
                0x00000000       0x20 /home/gordo/devkitpro/devkitARM/bin/../lib/gcc/arm-eabi/4.4.0/../../../../arm-eabi/lib/thumb/libg.a(lib_a-mbtowc_r.o)
 *fill*         0x0201d1e2        0x2 ff
 .rodata.str1.4
                0x0201d1e4        0x8 /home/gordo/devkitpro/devkitARM/bin/../lib/gcc/arm-eabi/4.4.0/../../../../arm-eabi/lib/thumb/libsysbase.a(iosupport.o)
 *(.gnu.linkonce.r*)
                0x0201d1ec                . = ALIGN (0x4)

.ARM.extab
 *(.ARM.extab* .gnu.linkonce.armextab.*)
                0x0201d1ec                __exidx_start = .

.ARM.exidx
 *(.ARM.exidx* .gnu.linkonce.armexidx.*)
                0x0201d1ec                __exidx_end = .
                0x0201d1ec                . = ALIGN (0x4)
                0x0201d1ec                PROVIDE (__preinit_array_start, .)

.preinit_array
 *(.preinit_array)
                0x0201d1ec                PROVIDE (__preinit_array_end, .)
                0x0201d1ec                PROVIDE (__init_array_start, .)

.init_array     0x0201d1ec        0x4
 *(.init_array)
 .init_array    0x0201d1ec        0x4 /home/gordo/devkitpro/devkitARM/bin/../lib/gcc/arm-eabi/4.4.0/thumb/crtbegin.o
                0x0201d1f0                PROVIDE (__init_array_end, .)
                0x0201d1f0                PROVIDE (__fini_array_start, .)

.fini_array     0x0201d1f0        0x4
 *(.fini_array)
 .fini_array    0x0201d1f0        0x4 /home/gordo/devkitpro/devkitARM/bin/../lib/gcc/arm-eabi/4.4.0/thumb/crtbegin.o
                0x0201d1f4                PROVIDE (__fini_array_end, .)

.ctors          0x0201d1f4        0x0
 *crtbegin.o(.ctors)
 *(EXCLUDE_FILE(*crtend.o) .ctors)
 *(SORT(.ctors.*))
 *(.ctors)
                0x0201d1f4                . = ALIGN (0x4)

.dtors          0x0201d1f4        0x0
 *crtbegin.o(.dtors)
 *(EXCLUDE_FILE(*crtend.o) .dtors)
 *(SORT(.dtors.*))
 *(.dtors)
                0x0201d1f4                . = ALIGN (0x4)

.eh_frame       0x0201d1f4      0x650
 *(.eh_frame)
 .eh_frame      0x0201d1f4        0x0 /home/gordo/devkitpro/devkitARM/bin/../lib/gcc/arm-eabi/4.4.0/thumb/crtbegin.o
 .eh_frame      0x0201d1f4       0xd8 aplist.o
 .eh_frame      0x0201d2cc      0x184 brut.o
                                0x198 (size before relaxing)
 .eh_frame      0x0201d450       0x44 main.o
                                 0x58 (size before relaxing)
 .eh_frame      0x0201d494       0xb4 spi_driver.o
                                 0xc8 (size before relaxing)
 .eh_frame      0x0201d548      0x2f8 uart.o
                                0x30c (size before relaxing)
 .eh_frame      0x0201d840        0x4 /home/gordo/devkitpro/devkitARM/bin/../lib/gcc/arm-eabi/4.4.0/thumb/crtend.o
                0x0201d844                . = ALIGN (0x4)

.gcc_except_table
                0x0201d844        0x0
 *(.gcc_except_table)
                0x0201d844                . = ALIGN (0x4)

.jcr            0x0201d844        0x4
 *(.jcr)
 .jcr           0x0201d844        0x0 /home/gordo/devkitpro/devkitARM/bin/../lib/gcc/arm-eabi/4.4.0/thumb/crtbegin.o
 .jcr           0x0201d844        0x4 /home/gordo/devkitpro/devkitARM/bin/../lib/gcc/arm-eabi/4.4.0/thumb/crtend.o

.got
 *(.got.plt)
 *(.got)
 *(.rel.got)

.ewram          0x0201d848        0x0
                0x0201d848                __ewram_start = ABSOLUTE (.)
 *(.ewram)
 *ewram.*(.text)
                0x0201d848                . = ALIGN (0x4)

.data           0x0201d848      0xcc4
                0x0201d848                __data_start = ABSOLUTE (.)
 *(.data)
 .data          0x0201d848        0x0 /home/gordo/devkitpro/devkitARM/bin/../lib/gcc/arm-eabi/4.4.0/../../../../arm-eabi/lib/thumb/ds_arm9_crt0.o
 .data          0x0201d848        0x0 /home/gordo/devkitpro/devkitARM/bin/../lib/gcc/arm-eabi/4.4.0/thumb/crti.o
 .data          0x0201d848        0x4 /home/gordo/devkitpro/devkitARM/bin/../lib/gcc/arm-eabi/4.4.0/thumb/crtbegin.o
                0x0201d848                __dso_handle
 .data          0x0201d84c        0x0 cclogo.o
 .data          0x0201d84c        0x0 aplist.o
 .data          0x0201d84c        0x0 brut.o
 .data          0x0201d84c        0x0 main.o
 .data          0x0201d84c        0x0 spi_driver.o
 .data          0x0201d84c        0x1 uart.o
 *fill*         0x0201d84d        0x3 ff
 .data          0x0201d850       0x1c /home/gordo/devkitpro/libnds/lib/libdswifi9.a(wifi_arm9.o)
                0x0201d850                ASSOCSTATUS_STRINGS
 .data          0x0201d86c        0x0 /home/gordo/devkitpro/libnds/lib/libdswifi9.a(spinlock.o)
 .data          0x0201d86c        0x0 /home/gordo/devkitpro/libnds/lib/libdswifi9.a(sgIP.o)
 .data          0x0201d86c        0x0 /home/gordo/devkitpro/libnds/lib/libdswifi9.a(sgIP_ARP.o)
 .data          0x0201d86c        0x0 /home/gordo/devkitpro/libnds/lib/libdswifi9.a(sgIP_DHCP.o)
 .data          0x0201d86c        0x0 /home/gordo/devkitpro/libnds/lib/libdswifi9.a(sgIP_DNS.o)
 .data          0x0201d86c        0x0 /home/gordo/devkitpro/libnds/lib/libdswifi9.a(sgIP_Hub.o)
 .data          0x0201d86c        0x0 /home/gordo/devkitpro/libnds/lib/libdswifi9.a(sgIP_IP.o)
 .data          0x0201d86c        0x0 /home/gordo/devkitpro/libnds/lib/libdswifi9.a(sgIP_TCP.o)
 .data          0x0201d86c        0x0 /home/gordo/devkitpro/libnds/lib/libdswifi9.a(sgIP_UDP.o)
 .data          0x0201d86c        0x0 /home/gordo/devkitpro/libnds/lib/libdswifi9.a(sgIP_memblock.o)
 .data          0x0201d86c        0x0 /home/gordo/devkitpro/libnds/lib/libdswifi9.a(sgIP_sockets.o)
 .data          0x0201d86c        0x0 /home/gordo/devkitpro/libnds/lib/libdswifi9.a(sgIP_ICMP.o)
 .data          0x0201d86c       0x60 /home/gordo/devkitpro/libnds/lib/libnds9.a(background.o)
                0x0201d86c                bgControl
                0x0201d8ac                bgTransform
                0x0201d88c                bgScrollTable
 .data          0x0201d8cc       0x64 /home/gordo/devkitpro/libnds/lib/libnds9.a(console.o)
                0x0201d8cc                defaultConsole
                0x0201d928                currentConsole
 .data          0x0201d930        0xc /home/gordo/devkitpro/libnds/lib/libnds9.a(decompress.o)
                0x0201d930                decomStream
 .data          0x0201d93c        0x0 /home/gordo/devkitpro/libnds/lib/libnds9.a(initSystem.o)
 .data          0x0201d93c        0x3 /home/gordo/devkitpro/libnds/lib/libnds9.a(keys.o)
 .data          0x0201d93f        0x0 /home/gordo/devkitpro/libnds/lib/libnds9.a(system.o)
 .data          0x0201d93f        0x0 /home/gordo/devkitpro/libnds/lib/libnds9.a(touch.o)
 *fill*         0x0201d93f        0x1 ff
 .data          0x0201d940      0x308 /home/gordo/devkitpro/libnds/lib/libnds9.a(trig.o)
                0x0201d940                SIN_LUT
                0x0201da44                TAN_LUT
 .data          0x0201dc48        0x0 /home/gordo/devkitpro/libnds/lib/libnds9.a(video.o)
 .data          0x0201dc48        0x0 /home/gordo/devkitpro/libnds/lib/libnds9.a(fifosystem.o)
 .data          0x0201dc48        0x0 /home/gordo/devkitpro/libnds/lib/libnds9.a(interrupts.o)
 .data          0x0201dc48        0x0 /home/gordo/devkitpro/libnds/lib/libnds9.a(dcache.o)
 .data          0x0201dc48        0x0 /home/gordo/devkitpro/libnds/lib/libnds9.a(biosCalls.o)
 .data          0x0201dc48        0x0 /home/gordo/devkitpro/libnds/lib/libnds9.a(debugprint.o)
 .data          0x0201dc48        0x0 /home/gordo/devkitpro/libnds/lib/libnds9.a(interruptDispatcher.o)
 .data          0x0201dc48        0x0 /home/gordo/devkitpro/libnds/lib/libnds9.a(default_font.bin.o)
 .data          0x0201dc48        0x0 /home/gordo/devkitpro/devkitARM/bin/../lib/gcc/arm-eabi/4.4.0/thumb/libgcc.a(_udivsi3.o)
 .data          0x0201dc48        0x0 /home/gordo/devkitpro/devkitARM/bin/../lib/gcc/arm-eabi/4.4.0/thumb/libgcc.a(_divsi3.o)
 .data          0x0201dc48        0x0 /home/gordo/devkitpro/devkitARM/bin/../lib/gcc/arm-eabi/4.4.0/thumb/libgcc.a(_dvmd_tls.o)
 .data          0x0201dc48        0x0 /home/gordo/devkitpro/devkitARM/bin/../lib/gcc/arm-eabi/4.4.0/thumb/libgcc.a(_arm_addsubdf3.o)
 .data          0x0201dc48        0x0 /home/gordo/devkitpro/devkitARM/bin/../lib/gcc/arm-eabi/4.4.0/thumb/libgcc.a(_arm_muldivdf3.o)
 .data          0x0201dc48        0x0 /home/gordo/devkitpro/devkitARM/bin/../lib/gcc/arm-eabi/4.4.0/thumb/libgcc.a(_arm_fixunsdfsi.o)
 .data          0x0201dc48        0x0 /home/gordo/devkitpro/devkitARM/bin/../lib/gcc/arm-eabi/4.4.0/thumb/libgcc.a(_arm_truncdfsf2.o)
 .data          0x0201dc48        0x0 /home/gordo/devkitpro/devkitARM/bin/../lib/gcc/arm-eabi/4.4.0/thumb/libgcc.a(_arm_addsubsf3.o)
 .data          0x0201dc48        0x0 /home/gordo/devkitpro/devkitARM/bin/../lib/gcc/arm-eabi/4.4.0/thumb/libgcc.a(_arm_muldivsf3.o)
 .data          0x0201dc48        0x0 /home/gordo/devkitpro/devkitARM/bin/../lib/gcc/arm-eabi/4.4.0/thumb/libgcc.a(_arm_cmpsf2.o)
 .data          0x0201dc48        0x0 /home/gordo/devkitpro/devkitARM/bin/../lib/gcc/arm-eabi/4.4.0/thumb/libgcc.a(_arm_fixunssfsi.o)
 .data          0x0201dc48        0x0 /home/gordo/devkitpro/devkitARM/bin/../lib/gcc/arm-eabi/4.4.0/../../../../arm-eabi/lib/thumb/libg.a(lib_a-bsearch.o)
 .data          0x0201dc48        0x0 /home/gordo/devkitpro/devkitARM/bin/../lib/gcc/arm-eabi/4.4.0/../../../../arm-eabi/lib/thumb/libg.a(lib_a-errno.o)
 .data          0x0201dc48      0x430 /home/gordo/devkitpro/devkitARM/bin/../lib/gcc/arm-eabi/4.4.0/../../../../arm-eabi/lib/thumb/libg.a(lib_a-impure.o)
                0x0201dc48                _impure_ptr
 .data          0x0201e078        0x0 /home/gordo/devkitpro/devkitARM/bin/../lib/gcc/arm-eabi/4.4.0/../../../../arm-eabi/lib/thumb/libg.a(lib_a-init.o)
 .data          0x0201e078        0x0 /home/gordo/devkitpro/devkitARM/bin/../lib/gcc/arm-eabi/4.4.0/../../../../arm-eabi/lib/thumb/libg.a(lib_a-iprintf.o)
 .data          0x0201e078        0x0 /home/gordo/devkitpro/devkitARM/bin/../lib/gcc/arm-eabi/4.4.0/../../../../arm-eabi/lib/thumb/libg.a(lib_a-malloc.o)
 .data          0x0201e078      0x410 /home/gordo/devkitpro/devkitARM/bin/../lib/gcc/arm-eabi/4.4.0/../../../../arm-eabi/lib/thumb/libg.a(lib_a-mallocr.o)
                0x0201e480                __malloc_sbrk_base
                0x0201e078                __malloc_av_
                0x0201e484                __malloc_trim_threshold
 .data          0x0201e488        0x0 /home/gordo/devkitpro/devkitARM/bin/../lib/gcc/arm-eabi/4.4.0/../../../../arm-eabi/lib/thumb/libg.a(lib_a-memcmp.o)
 .data          0x0201e488        0x0 /home/gordo/devkitpro/devkitARM/bin/../lib/gcc/arm-eabi/4.4.0/../../../../arm-eabi/lib/thumb/libg.a(lib_a-memcpy.o)
 .data          0x0201e488        0x0 /home/gordo/devkitpro/devkitARM/bin/../lib/gcc/arm-eabi/4.4.0/../../../../arm-eabi/lib/thumb/libg.a(lib_a-memmove.o)
 .data          0x0201e488        0x0 /home/gordo/devkitpro/devkitARM/bin/../lib/gcc/arm-eabi/4.4.0/../../../../arm-eabi/lib/thumb/libg.a(lib_a-memset.o)
 .data          0x0201e488        0x0 /home/gordo/devkitpro/devkitARM/bin/../lib/gcc/arm-eabi/4.4.0/../../../../arm-eabi/lib/thumb/libg.a(lib_a-mlock.o)
 .data          0x0201e488        0x0 /home/gordo/devkitpro/devkitARM/bin/../lib/gcc/arm-eabi/4.4.0/../../../../arm-eabi/lib/thumb/libg.a(lib_a-printf.o)
 .data          0x0201e488        0x0 /home/gordo/devkitpro/devkitARM/bin/../lib/gcc/arm-eabi/4.4.0/../../../../arm-eabi/lib/thumb/libg.a(lib_a-setvbuf.o)
 .data          0x0201e488        0x0 /home/gordo/devkitpro/devkitARM/bin/../lib/gcc/arm-eabi/4.4.0/../../../../arm-eabi/lib/thumb/libg.a(lib_a-siscanf.o)
 .data          0x0201e488        0x0 /home/gordo/devkitpro/devkitARM/bin/../lib/gcc/arm-eabi/4.4.0/../../../../arm-eabi/lib/thumb/libg.a(lib_a-strlen.o)
 .data          0x0201e488        0x0 /home/gordo/devkitpro/devkitARM/bin/../lib/gcc/arm-eabi/4.4.0/../../../../arm-eabi/lib/thumb/libg.a(lib_a-strncpy.o)
 .data          0x0201e488        0x0 /home/gordo/devkitpro/devkitARM/bin/../lib/gcc/arm-eabi/4.4.0/../../../../arm-eabi/lib/thumb/libg.a(lib_a-svfiscanf.o)
 .data          0x0201e488        0x0 /home/gordo/devkitpro/devkitARM/bin/../lib/gcc/arm-eabi/4.4.0/../../../../arm-eabi/lib/thumb/libg.a(lib_a-time.o)
 .data          0x0201e488        0x0 /home/gordo/devkitpro/devkitARM/bin/../lib/gcc/arm-eabi/4.4.0/../../../../arm-eabi/lib/thumb/libg.a(lib_a-ungetc.o)
 .data          0x0201e488        0x0 /home/gordo/devkitpro/devkitARM/bin/../lib/gcc/arm-eabi/4.4.0/../../../../arm-eabi/lib/thumb/libg.a(lib_a-vfiprintf.o)
 .data          0x0201e488        0x0 /home/gordo/devkitpro/devkitARM/bin/../lib/gcc/arm-eabi/4.4.0/../../../../arm-eabi/lib/thumb/libg.a(lib_a-vfprintf.o)
 .data          0x0201e488        0x0 /home/gordo/devkitpro/devkitARM/bin/../lib/gcc/arm-eabi/4.4.0/../../../../arm-eabi/lib/thumb/libg.a(lib_a-wcrtomb.o)
 .data          0x0201e488        0x0 /home/gordo/devkitpro/devkitARM/bin/../lib/gcc/arm-eabi/4.4.0/../../../../arm-eabi/lib/thumb/libg.a(lib_a-wcsrtombs.o)
 .data          0x0201e488        0x0 /home/gordo/devkitpro/devkitARM/bin/../lib/gcc/arm-eabi/4.4.0/../../../../arm-eabi/lib/thumb/libg.a(lib_a-wctomb_r.o)
 .data          0x0201e488        0x0 /home/gordo/devkitpro/devkitARM/bin/../lib/gcc/arm-eabi/4.4.0/../../../../arm-eabi/lib/thumb/libg.a(lib_a-wsetup.o)
 .data          0x0201e488        0x8 /home/gordo/devkitpro/devkitARM/bin/../lib/gcc/arm-eabi/4.4.0/../../../../arm-eabi/lib/thumb/libg.a(lib_a-ctype_.o)
                0x0201e488                __ctype_ptr
                0x0201e48c                __ctype_ptr__
 .data          0x0201e490        0x0 /home/gordo/devkitpro/devkitARM/bin/../lib/gcc/arm-eabi/4.4.0/../../../../arm-eabi/lib/thumb/libg.a(lib_a-dtoa.o)
 .data          0x0201e490        0x0 /home/gordo/devkitpro/devkitARM/bin/../lib/gcc/arm-eabi/4.4.0/../../../../arm-eabi/lib/thumb/libg.a(lib_a-fflush.o)
 .data          0x0201e490        0x0 /home/gordo/devkitpro/devkitARM/bin/../lib/gcc/arm-eabi/4.4.0/../../../../arm-eabi/lib/thumb/libg.a(lib_a-findfp.o)
 .data          0x0201e490        0x0 /home/gordo/devkitpro/devkitARM/bin/../lib/gcc/arm-eabi/4.4.0/../../../../arm-eabi/lib/thumb/libg.a(lib_a-freer.o)
 .data          0x0201e490        0x0 /home/gordo/devkitpro/devkitARM/bin/../lib/gcc/arm-eabi/4.4.0/../../../../arm-eabi/lib/thumb/libg.a(lib_a-fvwrite.o)
 .data          0x0201e490        0x0 /home/gordo/devkitpro/devkitARM/bin/../lib/gcc/arm-eabi/4.4.0/../../../../arm-eabi/lib/thumb/libg.a(lib_a-fwalk.o)
 .data          0x0201e490        0x0 /home/gordo/devkitpro/devkitARM/bin/../lib/gcc/arm-eabi/4.4.0/../../../../arm-eabi/lib/thumb/libg.a(lib_a-iswspace.o)
 .data          0x0201e490        0x0 /home/gordo/devkitpro/devkitARM/bin/../lib/gcc/arm-eabi/4.4.0/../../../../arm-eabi/lib/thumb/libg.a(lib_a-jp2uc.o)
 .data          0x0201e490       0x38 /home/gordo/devkitpro/devkitARM/bin/../lib/gcc/arm-eabi/4.4.0/../../../../arm-eabi/lib/thumb/libg.a(lib_a-locale.o)
                0x0201e4c4                __mb_cur_max
                0x0201e4a0                __lc_ctype
 .data          0x0201e4c8        0x0 /home/gordo/devkitpro/devkitARM/bin/../lib/gcc/arm-eabi/4.4.0/../../../../arm-eabi/lib/thumb/libg.a(lib_a-makebuf.o)
 .data          0x0201e4c8        0x0 /home/gordo/devkitpro/devkitARM/bin/../lib/gcc/arm-eabi/4.4.0/../../../../arm-eabi/lib/thumb/libg.a(lib_a-mbrtowc.o)
 .data          0x0201e4c8        0x0 /home/gordo/devkitpro/devkitARM/bin/../lib/gcc/arm-eabi/4.4.0/../../../../arm-eabi/lib/thumb/libg.a(lib_a-mbtowc_r.o)
 .data          0x0201e4c8        0x0 /home/gordo/devkitpro/devkitARM/bin/../lib/gcc/arm-eabi/4.4.0/../../../../arm-eabi/lib/thumb/libg.a(lib_a-memchr.o)
 .data          0x0201e4c8        0x0 /home/gordo/devkitpro/devkitARM/bin/../lib/gcc/arm-eabi/4.4.0/../../../../arm-eabi/lib/thumb/libg.a(lib_a-mprec.o)
 .data          0x0201e4c8        0x0 /home/gordo/devkitpro/devkitARM/bin/../lib/gcc/arm-eabi/4.4.0/../../../../arm-eabi/lib/thumb/libg.a(lib_a-reallocr.o)
 .data          0x0201e4c8        0x0 /home/gordo/devkitpro/devkitARM/bin/../lib/gcc/arm-eabi/4.4.0/../../../../arm-eabi/lib/thumb/libg.a(lib_a-sccl.o)
 .data          0x0201e4c8        0x0 /home/gordo/devkitpro/devkitARM/bin/../lib/gcc/arm-eabi/4.4.0/../../../../arm-eabi/lib/thumb/libg.a(lib_a-s_isinfd.o)
 .data          0x0201e4c8        0x0 /home/gordo/devkitpro/devkitARM/bin/../lib/gcc/arm-eabi/4.4.0/../../../../arm-eabi/lib/thumb/libg.a(lib_a-s_isnand.o)
 .data          0x0201e4c8        0x0 /home/gordo/devkitpro/devkitARM/bin/../lib/gcc/arm-eabi/4.4.0/../../../../arm-eabi/lib/thumb/libg.a(lib_a-stdio.o)
 .data          0x0201e4c8        0x0 /home/gordo/devkitpro/devkitARM/bin/../lib/gcc/arm-eabi/4.4.0/../../../../arm-eabi/lib/thumb/libg.a(lib_a-strcmp.o)
 .data          0x0201e4c8        0x0 /home/gordo/devkitpro/devkitARM/bin/../lib/gcc/arm-eabi/4.4.0/../../../../arm-eabi/lib/thumb/libg.a(lib_a-strcpy.o)
 .data          0x0201e4c8        0x0 /home/gordo/devkitpro/devkitARM/bin/../lib/gcc/arm-eabi/4.4.0/../../../../arm-eabi/lib/thumb/libg.a(lib_a-strtol.o)
 .data          0x0201e4c8        0x0 /home/gordo/devkitpro/devkitARM/bin/../lib/gcc/arm-eabi/4.4.0/../../../../arm-eabi/lib/thumb/libg.a(lib_a-strtoul.o)
 .data          0x0201e4c8        0x0 /home/gordo/devkitpro/devkitARM/bin/../lib/gcc/arm-eabi/4.4.0/../../../../arm-eabi/lib/thumb/libg.a(lib_a-callocr.o)
 .data          0x0201e4c8        0x0 /home/gordo/devkitpro/devkitARM/bin/../lib/gcc/arm-eabi/4.4.0/../../../../arm-eabi/lib/thumb/libg.a(lib_a-fclose.o)
 .data          0x0201e4c8       0x44 /home/gordo/devkitpro/devkitARM/bin/../lib/gcc/arm-eabi/4.4.0/../../../../arm-eabi/lib/thumb/libsysbase.a(iosupport.o)
                0x0201e4cc                devoptab_list
 .data          0x0201e50c        0x0 /home/gordo/devkitpro/devkitARM/bin/../lib/gcc/arm-eabi/4.4.0/../../../../arm-eabi/lib/thumb/libsysbase.a(close.o)
 .data          0x0201e50c        0x0 /home/gordo/devkitpro/devkitARM/bin/../lib/gcc/arm-eabi/4.4.0/../../../../arm-eabi/lib/thumb/libsysbase.a(fstat.o)
 .data          0x0201e50c        0x0 /home/gordo/devkitpro/devkitARM/bin/../lib/gcc/arm-eabi/4.4.0/../../../../arm-eabi/lib/thumb/libsysbase.a(isatty.o)
 .data          0x0201e50c        0x0 /home/gordo/devkitpro/devkitARM/bin/../lib/gcc/arm-eabi/4.4.0/../../../../arm-eabi/lib/thumb/libsysbase.a(lseek.o)
 .data          0x0201e50c        0x0 /home/gordo/devkitpro/devkitARM/bin/../lib/gcc/arm-eabi/4.4.0/../../../../arm-eabi/lib/thumb/libsysbase.a(read.o)
 .data          0x0201e50c        0x0 /home/gordo/devkitpro/devkitARM/bin/../lib/gcc/arm-eabi/4.4.0/../../../../arm-eabi/lib/thumb/libsysbase.a(sbrk.o)
 .data          0x0201e50c        0x0 /home/gordo/devkitpro/devkitARM/bin/../lib/gcc/arm-eabi/4.4.0/../../../../arm-eabi/lib/thumb/libsysbase.a(times.o)
 .data          0x0201e50c        0x0 /home/gordo/devkitpro/devkitARM/bin/../lib/gcc/arm-eabi/4.4.0/../../../../arm-eabi/lib/thumb/libsysbase.a(write.o)
 .data          0x0201e50c        0x0 /home/gordo/devkitpro/devkitARM/bin/../lib/gcc/arm-eabi/4.4.0/../../../../arm-eabi/lib/thumb/libsysbase.a(malloc_vars.o)
 .data          0x0201e50c        0x0 /home/gordo/devkitpro/devkitARM/bin/../lib/gcc/arm-eabi/4.4.0/../../../../arm-eabi/lib/thumb/libsysbase.a(build_argv.o)
 .data          0x0201e50c        0x0 /home/gordo/devkitpro/devkitARM/bin/../lib/gcc/arm-eabi/4.4.0/../../../../arm-eabi/lib/thumb/libsysbase.a(handle_manager.o)
 .data          0x0201e50c        0x0 /home/gordo/devkitpro/devkitARM/bin/../lib/gcc/arm-eabi/4.4.0/thumb/libgcc.a(_arm_cmpdf2.o)
 .data          0x0201e50c        0x0 /home/gordo/devkitpro/devkitARM/bin/../lib/gcc/arm-eabi/4.4.0/thumb/libgcc.a(_arm_fixdfsi.o)
 .data          0x0201e50c        0x0 /home/gordo/devkitpro/devkitARM/bin/../lib/gcc/arm-eabi/4.4.0/../../../../arm-eabi/lib/thumb/libg.a(lib_a-strncmp.o)
 .data          0x0201e50c        0x0 /home/gordo/devkitpro/devkitARM/bin/../lib/gcc/arm-eabi/4.4.0/thumb/crtend.o
 .data          0x0201e50c        0x0 /home/gordo/devkitpro/devkitARM/bin/../lib/gcc/arm-eabi/4.4.0/thumb/crtn.o
 *(.data.*)
 *(.gnu.linkonce.d*)
                0x0201e50c                . = ALIGN (0x4)
                0x0201e50c                __data_end = ABSOLUTE (.)
                0x0201e50c                __dtcm_lma = .
                0x0201e50c                __bss_vma = .

.dtcm           0x0b000000        0x0 load address 0x0201e50c
 *(.dtcm)
 *(.dtcm.*)
                0x0b000000                . = ALIGN (0x4)
                0x0b000000                __dtcm_end = ABSOLUTE (.)
                0x0201e50c                __itcm_lma = (__dtcm_lma + SIZEOF (.dtcm))

.itcm           0x01000100      0x190 load address 0x0201e50c
 *(.itcm)
 .itcm          0x01000100       0xc8 /home/gordo/devkitpro/libnds/lib/libnds9.a(interrupts.o)
                0x01000100                irqTable
 .itcm          0x010001c8       0xc8 /home/gordo/devkitpro/libnds/lib/libnds9.a(interruptDispatcher.o)
                0x010001c8                IntrMain
 *itcm.*(.text)
                0x01000290                . = ALIGN (0x4)
                0x01000290                __itcm_end = ABSOLUTE (.)
                0x0201e69c                __vectors_lma = (__itcm_lma + SIZEOF (.itcm))

.vectors        0x01000000        0x0 load address 0x0201e69c
 *(.vectors)
 *vectors.*(.text)
                0x01000000                . = ALIGN (0x4)
                0x01000000                __vectors_end = ABSOLUTE (.)

.sbss           0x0b000000        0x0
                0x0b000000                __sbss_start = ABSOLUTE (.)
                0x0b000000                __sbss_start__ = ABSOLUTE (.)
 *(.sbss)
                0x0b000000                . = ALIGN (0x4)
                0x0b000000                __sbss_end = ABSOLUTE (.)

.bss            0x0201e50c    0x130dc
                0x0201e50c                __bss_start = ABSOLUTE (.)
                0x0201e50c                __bss_start__ = ABSOLUTE (.)
 *(.dynbss)
 *(.gnu.linkonce.b*)
 *(.bss*)
 .bss           0x0201e50c        0x0 /home/gordo/devkitpro/devkitARM/bin/../lib/gcc/arm-eabi/4.4.0/../../../../arm-eabi/lib/thumb/ds_arm9_crt0.o
 .bss           0x0201e50c        0x0 /home/gordo/devkitpro/devkitARM/bin/../lib/gcc/arm-eabi/4.4.0/thumb/crti.o
 .bss           0x0201e50c       0x1c /home/gordo/devkitpro/devkitARM/bin/../lib/gcc/arm-eabi/4.4.0/thumb/crtbegin.o
 .bss           0x0201e528        0x0 cclogo.o
 .bss           0x0201e528        0x0 aplist.o
 .bss           0x0201e528        0x0 brut.o
 .bss           0x0201e528        0x0 main.o
 .bss           0x0201e528        0x8 spi_driver.o
 .bss           0x0201e530      0x230 uart.o
 .bss           0x0201e760       0x10 /home/gordo/devkitpro/libnds/lib/libdswifi9.a(wifi_arm9.o)
                0x0201e76c                wifi_connect_state
                0x0201e760                WifiData
                0x0201e768                synchandler
                0x0201e764                packethandler
 .bss           0x0201e770        0x0 /home/gordo/devkitpro/libnds/lib/libdswifi9.a(spinlock.o)
 .bss           0x0201e770        0x0 /home/gordo/devkitpro/libnds/lib/libdswifi9.a(sgIP.o)
 .bss           0x0201e770        0x0 /home/gordo/devkitpro/libnds/lib/libdswifi9.a(sgIP_ARP.o)
 .bss           0x0201e770        0x0 /home/gordo/devkitpro/libnds/lib/libdswifi9.a(sgIP_DHCP.o)
 .bss           0x0201e770        0x0 /home/gordo/devkitpro/libnds/lib/libdswifi9.a(sgIP_DNS.o)
 .bss           0x0201e770        0x0 /home/gordo/devkitpro/libnds/lib/libdswifi9.a(sgIP_Hub.o)
 .bss           0x0201e770        0x0 /home/gordo/devkitpro/libnds/lib/libdswifi9.a(sgIP_IP.o)
 .bss           0x0201e770        0x0 /home/gordo/devkitpro/libnds/lib/libdswifi9.a(sgIP_TCP.o)
 .bss           0x0201e770        0x0 /home/gordo/devkitpro/libnds/lib/libdswifi9.a(sgIP_UDP.o)
 .bss           0x0201e770        0x0 /home/gordo/devkitpro/libnds/lib/libdswifi9.a(sgIP_memblock.o)
 .bss           0x0201e770        0x0 /home/gordo/devkitpro/libnds/lib/libdswifi9.a(sgIP_sockets.o)
 .bss           0x0201e770        0x0 /home/gordo/devkitpro/libnds/lib/libdswifi9.a(sgIP_ICMP.o)
 .bss           0x0201e770        0x0 /home/gordo/devkitpro/libnds/lib/libnds9.a(background.o)
 .bss           0x0201e770        0x0 /home/gordo/devkitpro/libnds/lib/libnds9.a(console.o)
 .bss           0x0201e770        0x0 /home/gordo/devkitpro/libnds/lib/libnds9.a(decompress.o)
 .bss           0x0201e770        0x0 /home/gordo/devkitpro/libnds/lib/libnds9.a(initSystem.o)
 .bss           0x0201e770        0x6 /home/gordo/devkitpro/libnds/lib/libnds9.a(keys.o)
 .bss           0x0201e776        0x0 /home/gordo/devkitpro/libnds/lib/libnds9.a(system.o)
 .bss           0x0201e776        0x0 /home/gordo/devkitpro/libnds/lib/libnds9.a(touch.o)
 .bss           0x0201e776        0x0 /home/gordo/devkitpro/libnds/lib/libnds9.a(trig.o)
 .bss           0x0201e776        0x0 /home/gordo/devkitpro/libnds/lib/libnds9.a(video.o)
 *fill*         0x0201e776        0x2 00
 .bss           0x0201e778       0x14 /home/gordo/devkitpro/libnds/lib/libnds9.a(fifosystem.o)
                0x0201e788                fifo_lost_words
                0x0201e784                fifo_recv_status
                0x0201e778                fifo_initialized
                0x0201e780                fifo_send_status
                0x0201e77c                fifo_protect_levels
 .bss           0x0201e78c        0x0 /home/gordo/devkitpro/libnds/lib/libnds9.a(interrupts.o)
 .bss           0x0201e78c        0x0 /home/gordo/devkitpro/libnds/lib/libnds9.a(dcache.o)
 .bss           0x0201e78c        0x0 /home/gordo/devkitpro/libnds/lib/libnds9.a(biosCalls.o)
 .bss           0x0201e78c        0x0 /home/gordo/devkitpro/libnds/lib/libnds9.a(debugprint.o)
 .bss           0x0201e78c        0x0 /home/gordo/devkitpro/libnds/lib/libnds9.a(interruptDispatcher.o)
 .bss           0x0201e78c        0x0 /home/gordo/devkitpro/libnds/lib/libnds9.a(default_font.bin.o)
 .bss           0x0201e78c        0x0 /home/gordo/devkitpro/devkitARM/bin/../lib/gcc/arm-eabi/4.4.0/thumb/libgcc.a(_udivsi3.o)
 .bss           0x0201e78c        0x0 /home/gordo/devkitpro/devkitARM/bin/../lib/gcc/arm-eabi/4.4.0/thumb/libgcc.a(_divsi3.o)
 .bss           0x0201e78c        0x0 /home/gordo/devkitpro/devkitARM/bin/../lib/gcc/arm-eabi/4.4.0/thumb/libgcc.a(_dvmd_tls.o)
 .bss           0x0201e78c        0x0 /home/gordo/devkitpro/devkitARM/bin/../lib/gcc/arm-eabi/4.4.0/thumb/libgcc.a(_arm_addsubdf3.o)
 .bss           0x0201e78c        0x0 /home/gordo/devkitpro/devkitARM/bin/../lib/gcc/arm-eabi/4.4.0/thumb/libgcc.a(_arm_muldivdf3.o)
 .bss           0x0201e78c        0x0 /home/gordo/devkitpro/devkitARM/bin/../lib/gcc/arm-eabi/4.4.0/thumb/libgcc.a(_arm_fixunsdfsi.o)
 .bss           0x0201e78c        0x0 /home/gordo/devkitpro/devkitARM/bin/../lib/gcc/arm-eabi/4.4.0/thumb/libgcc.a(_arm_truncdfsf2.o)
 .bss           0x0201e78c        0x0 /home/gordo/devkitpro/devkitARM/bin/../lib/gcc/arm-eabi/4.4.0/thumb/libgcc.a(_arm_addsubsf3.o)
 .bss           0x0201e78c        0x0 /home/gordo/devkitpro/devkitARM/bin/../lib/gcc/arm-eabi/4.4.0/thumb/libgcc.a(_arm_muldivsf3.o)
 .bss           0x0201e78c        0x0 /home/gordo/devkitpro/devkitARM/bin/../lib/gcc/arm-eabi/4.4.0/thumb/libgcc.a(_arm_cmpsf2.o)
 .bss           0x0201e78c        0x0 /home/gordo/devkitpro/devkitARM/bin/../lib/gcc/arm-eabi/4.4.0/thumb/libgcc.a(_arm_fixunssfsi.o)
 .bss           0x0201e78c        0x0 /home/gordo/devkitpro/devkitARM/bin/../lib/gcc/arm-eabi/4.4.0/../../../../arm-eabi/lib/thumb/libg.a(lib_a-bsearch.o)
 .bss           0x0201e78c        0x0 /home/gordo/devkitpro/devkitARM/bin/../lib/gcc/arm-eabi/4.4.0/../../../../arm-eabi/lib/thumb/libg.a(lib_a-errno.o)
 .bss           0x0201e78c        0x0 /home/gordo/devkitpro/devkitARM/bin/../lib/gcc/arm-eabi/4.4.0/../../../../arm-eabi/lib/thumb/libg.a(lib_a-impure.o)
 .bss           0x0201e78c        0x0 /home/gordo/devkitpro/devkitARM/bin/../lib/gcc/arm-eabi/4.4.0/../../../../arm-eabi/lib/thumb/libg.a(lib_a-init.o)
 .bss           0x0201e78c        0x0 /home/gordo/devkitpro/devkitARM/bin/../lib/gcc/arm-eabi/4.4.0/../../../../arm-eabi/lib/thumb/libg.a(lib_a-iprintf.o)
 .bss           0x0201e78c        0x0 /home/gordo/devkitpro/devkitARM/bin/../lib/gcc/arm-eabi/4.4.0/../../../../arm-eabi/lib/thumb/libg.a(lib_a-malloc.o)
 .bss           0x0201e78c       0x34 /home/gordo/devkitpro/devkitARM/bin/../lib/gcc/arm-eabi/4.4.0/../../../../arm-eabi/lib/thumb/libg.a(lib_a-mallocr.o)
                0x0201e78c                __malloc_top_pad
                0x0201e7b8                __malloc_max_sbrked_mem
                0x0201e790                __malloc_current_mallinfo
                0x0201e7bc                __malloc_max_total_mem
 .bss           0x0201e7c0        0x0 /home/gordo/devkitpro/devkitARM/bin/../lib/gcc/arm-eabi/4.4.0/../../../../arm-eabi/lib/thumb/libg.a(lib_a-memcmp.o)
 .bss           0x0201e7c0        0x0 /home/gordo/devkitpro/devkitARM/bin/../lib/gcc/arm-eabi/4.4.0/../../../../arm-eabi/lib/thumb/libg.a(lib_a-memcpy.o)
 .bss           0x0201e7c0        0x0 /home/gordo/devkitpro/devkitARM/bin/../lib/gcc/arm-eabi/4.4.0/../../../../arm-eabi/lib/thumb/libg.a(lib_a-memmove.o)
 .bss           0x0201e7c0        0x0 /home/gordo/devkitpro/devkitARM/bin/../lib/gcc/arm-eabi/4.4.0/../../../../arm-eabi/lib/thumb/libg.a(lib_a-memset.o)
 .bss           0x0201e7c0        0x0 /home/gordo/devkitpro/devkitARM/bin/../lib/gcc/arm-eabi/4.4.0/../../../../arm-eabi/lib/thumb/libg.a(lib_a-mlock.o)
 .bss           0x0201e7c0        0x0 /home/gordo/devkitpro/devkitARM/bin/../lib/gcc/arm-eabi/4.4.0/../../../../arm-eabi/lib/thumb/libg.a(lib_a-printf.o)
 .bss           0x0201e7c0        0x0 /home/gordo/devkitpro/devkitARM/bin/../lib/gcc/arm-eabi/4.4.0/../../../../arm-eabi/lib/thumb/libg.a(lib_a-setvbuf.o)
 .bss           0x0201e7c0        0x0 /home/gordo/devkitpro/devkitARM/bin/../lib/gcc/arm-eabi/4.4.0/../../../../arm-eabi/lib/thumb/libg.a(lib_a-siscanf.o)
 .bss           0x0201e7c0        0x0 /home/gordo/devkitpro/devkitARM/bin/../lib/gcc/arm-eabi/4.4.0/../../../../arm-eabi/lib/thumb/libg.a(lib_a-strlen.o)
 .bss           0x0201e7c0        0x0 /home/gordo/devkitpro/devkitARM/bin/../lib/gcc/arm-eabi/4.4.0/../../../../arm-eabi/lib/thumb/libg.a(lib_a-strncpy.o)
 .bss           0x0201e7c0        0x0 /home/gordo/devkitpro/devkitARM/bin/../lib/gcc/arm-eabi/4.4.0/../../../../arm-eabi/lib/thumb/libg.a(lib_a-svfiscanf.o)
 .bss           0x0201e7c0        0x0 /home/gordo/devkitpro/devkitARM/bin/../lib/gcc/arm-eabi/4.4.0/../../../../arm-eabi/lib/thumb/libg.a(lib_a-time.o)
 .bss           0x0201e7c0        0x0 /home/gordo/devkitpro/devkitARM/bin/../lib/gcc/arm-eabi/4.4.0/../../../../arm-eabi/lib/thumb/libg.a(lib_a-ungetc.o)
 .bss           0x0201e7c0        0x0 /home/gordo/devkitpro/devkitARM/bin/../lib/gcc/arm-eabi/4.4.0/../../../../arm-eabi/lib/thumb/libg.a(lib_a-vfiprintf.o)
 .bss           0x0201e7c0        0x0 /home/gordo/devkitpro/devkitARM/bin/../lib/gcc/arm-eabi/4.4.0/../../../../arm-eabi/lib/thumb/libg.a(lib_a-vfprintf.o)
 .bss           0x0201e7c0        0x0 /home/gordo/devkitpro/devkitARM/bin/../lib/gcc/arm-eabi/4.4.0/../../../../arm-eabi/lib/thumb/libg.a(lib_a-wcrtomb.o)
 .bss           0x0201e7c0        0x0 /home/gordo/devkitpro/devkitARM/bin/../lib/gcc/arm-eabi/4.4.0/../../../../arm-eabi/lib/thumb/libg.a(lib_a-wcsrtombs.o)
 .bss           0x0201e7c0        0x0 /home/gordo/devkitpro/devkitARM/bin/../lib/gcc/arm-eabi/4.4.0/../../../../arm-eabi/lib/thumb/libg.a(lib_a-wctomb_r.o)
 .bss           0x0201e7c0        0x0 /home/gordo/devkitpro/devkitARM/bin/../lib/gcc/arm-eabi/4.4.0/../../../../arm-eabi/lib/thumb/libg.a(lib_a-wsetup.o)
 .bss           0x0201e7c0        0x0 /home/gordo/devkitpro/devkitARM/bin/../lib/gcc/arm-eabi/4.4.0/../../../../arm-eabi/lib/thumb/libg.a(lib_a-ctype_.o)
 .bss           0x0201e7c0        0x0 /home/gordo/devkitpro/devkitARM/bin/../lib/gcc/arm-eabi/4.4.0/../../../../arm-eabi/lib/thumb/libg.a(lib_a-dtoa.o)
 .bss           0x0201e7c0        0x0 /home/gordo/devkitpro/devkitARM/bin/../lib/gcc/arm-eabi/4.4.0/../../../../arm-eabi/lib/thumb/libg.a(lib_a-fflush.o)
 .bss           0x0201e7c0        0x0 /home/gordo/devkitpro/devkitARM/bin/../lib/gcc/arm-eabi/4.4.0/../../../../arm-eabi/lib/thumb/libg.a(lib_a-findfp.o)
 .bss           0x0201e7c0        0x0 /home/gordo/devkitpro/devkitARM/bin/../lib/gcc/arm-eabi/4.4.0/../../../../arm-eabi/lib/thumb/libg.a(lib_a-freer.o)
 .bss           0x0201e7c0        0x0 /home/gordo/devkitpro/devkitARM/bin/../lib/gcc/arm-eabi/4.4.0/../../../../arm-eabi/lib/thumb/libg.a(lib_a-fvwrite.o)
 .bss           0x0201e7c0        0x0 /home/gordo/devkitpro/devkitARM/bin/../lib/gcc/arm-eabi/4.4.0/../../../../arm-eabi/lib/thumb/libg.a(lib_a-fwalk.o)
 .bss           0x0201e7c0        0x0 /home/gordo/devkitpro/devkitARM/bin/../lib/gcc/arm-eabi/4.4.0/../../../../arm-eabi/lib/thumb/libg.a(lib_a-iswspace.o)
 .bss           0x0201e7c0        0x0 /home/gordo/devkitpro/devkitARM/bin/../lib/gcc/arm-eabi/4.4.0/../../../../arm-eabi/lib/thumb/libg.a(lib_a-jp2uc.o)
 .bss           0x0201e7c0        0xc /home/gordo/devkitpro/devkitARM/bin/../lib/gcc/arm-eabi/4.4.0/../../../../arm-eabi/lib/thumb/libg.a(lib_a-locale.o)
                0x0201e7c0                __nlocale_changed
                0x0201e7c4                __mlocale_changed
                0x0201e7c8                _PathLocale
 .bss           0x0201e7cc        0x0 /home/gordo/devkitpro/devkitARM/bin/../lib/gcc/arm-eabi/4.4.0/../../../../arm-eabi/lib/thumb/libg.a(lib_a-makebuf.o)
 .bss           0x0201e7cc        0x0 /home/gordo/devkitpro/devkitARM/bin/../lib/gcc/arm-eabi/4.4.0/../../../../arm-eabi/lib/thumb/libg.a(lib_a-mbrtowc.o)
 .bss           0x0201e7cc        0x0 /home/gordo/devkitpro/devkitARM/bin/../lib/gcc/arm-eabi/4.4.0/../../../../arm-eabi/lib/thumb/libg.a(lib_a-mbtowc_r.o)
 .bss           0x0201e7cc        0x0 /home/gordo/devkitpro/devkitARM/bin/../lib/gcc/arm-eabi/4.4.0/../../../../arm-eabi/lib/thumb/libg.a(lib_a-memchr.o)
 .bss           0x0201e7cc        0x0 /home/gordo/devkitpro/devkitARM/bin/../lib/gcc/arm-eabi/4.4.0/../../../../arm-eabi/lib/thumb/libg.a(lib_a-mprec.o)
 .bss           0x0201e7cc        0x0 /home/gordo/devkitpro/devkitARM/bin/../lib/gcc/arm-eabi/4.4.0/../../../../arm-eabi/lib/thumb/libg.a(lib_a-reallocr.o)
 .bss           0x0201e7cc        0x0 /home/gordo/devkitpro/devkitARM/bin/../lib/gcc/arm-eabi/4.4.0/../../../../arm-eabi/lib/thumb/libg.a(lib_a-sccl.o)
 .bss           0x0201e7cc        0x0 /home/gordo/devkitpro/devkitARM/bin/../lib/gcc/arm-eabi/4.4.0/../../../../arm-eabi/lib/thumb/libg.a(lib_a-s_isinfd.o)
 .bss           0x0201e7cc        0x0 /home/gordo/devkitpro/devkitARM/bin/../lib/gcc/arm-eabi/4.4.0/../../../../arm-eabi/lib/thumb/libg.a(lib_a-s_isnand.o)
 .bss           0x0201e7cc        0x0 /home/gordo/devkitpro/devkitARM/bin/../lib/gcc/arm-eabi/4.4.0/../../../../arm-eabi/lib/thumb/libg.a(lib_a-stdio.o)
 .bss           0x0201e7cc        0x0 /home/gordo/devkitpro/devkitARM/bin/../lib/gcc/arm-eabi/4.4.0/../../../../arm-eabi/lib/thumb/libg.a(lib_a-strcmp.o)
 .bss           0x0201e7cc        0x0 /home/gordo/devkitpro/devkitARM/bin/../lib/gcc/arm-eabi/4.4.0/../../../../arm-eabi/lib/thumb/libg.a(lib_a-strcpy.o)
 .bss           0x0201e7cc        0x0 /home/gordo/devkitpro/devkitARM/bin/../lib/gcc/arm-eabi/4.4.0/../../../../arm-eabi/lib/thumb/libg.a(lib_a-strtol.o)
 .bss           0x0201e7cc        0x0 /home/gordo/devkitpro/devkitARM/bin/../lib/gcc/arm-eabi/4.4.0/../../../../arm-eabi/lib/thumb/libg.a(lib_a-strtoul.o)
 .bss           0x0201e7cc        0x0 /home/gordo/devkitpro/devkitARM/bin/../lib/gcc/arm-eabi/4.4.0/../../../../arm-eabi/lib/thumb/libg.a(lib_a-callocr.o)
 .bss           0x0201e7cc        0x0 /home/gordo/devkitpro/devkitARM/bin/../lib/gcc/arm-eabi/4.4.0/../../../../arm-eabi/lib/thumb/libg.a(lib_a-fclose.o)
 .bss           0x0201e7cc        0x0 /home/gordo/devkitpro/devkitARM/bin/../lib/gcc/arm-eabi/4.4.0/../../../../arm-eabi/lib/thumb/libsysbase.a(iosupport.o)
 .bss           0x0201e7cc        0x0 /home/gordo/devkitpro/devkitARM/bin/../lib/gcc/arm-eabi/4.4.0/../../../../arm-eabi/lib/thumb/libsysbase.a(close.o)
 .bss           0x0201e7cc        0x0 /home/gordo/devkitpro/devkitARM/bin/../lib/gcc/arm-eabi/4.4.0/../../../../arm-eabi/lib/thumb/libsysbase.a(fstat.o)
 .bss           0x0201e7cc        0x0 /home/gordo/devkitpro/devkitARM/bin/../lib/gcc/arm-eabi/4.4.0/../../../../arm-eabi/lib/thumb/libsysbase.a(isatty.o)
 .bss           0x0201e7cc        0x0 /home/gordo/devkitpro/devkitARM/bin/../lib/gcc/arm-eabi/4.4.0/../../../../arm-eabi/lib/thumb/libsysbase.a(lseek.o)
 .bss           0x0201e7cc        0x0 /home/gordo/devkitpro/devkitARM/bin/../lib/gcc/arm-eabi/4.4.0/../../../../arm-eabi/lib/thumb/libsysbase.a(read.o)
 .bss           0x0201e7cc        0x4 /home/gordo/devkitpro/devkitARM/bin/../lib/gcc/arm-eabi/4.4.0/../../../../arm-eabi/lib/thumb/libsysbase.a(sbrk.o)
 .bss           0x0201e7d0        0x0 /home/gordo/devkitpro/devkitARM/bin/../lib/gcc/arm-eabi/4.4.0/../../../../arm-eabi/lib/thumb/libsysbase.a(times.o)
 .bss           0x0201e7d0        0x0 /home/gordo/devkitpro/devkitARM/bin/../lib/gcc/arm-eabi/4.4.0/../../../../arm-eabi/lib/thumb/libsysbase.a(write.o)
 .bss           0x0201e7d0        0x8 /home/gordo/devkitpro/devkitARM/bin/../lib/gcc/arm-eabi/4.4.0/../../../../arm-eabi/lib/thumb/libsysbase.a(malloc_vars.o)
                0x0201e7d4                fake_heap_start
                0x0201e7d0                fake_heap_end
 .bss           0x0201e7d8        0x0 /home/gordo/devkitpro/devkitARM/bin/../lib/gcc/arm-eabi/4.4.0/../../../../arm-eabi/lib/thumb/libsysbase.a(build_argv.o)
 .bss           0x0201e7d8     0x1000 /home/gordo/devkitpro/devkitARM/bin/../lib/gcc/arm-eabi/4.4.0/../../../../arm-eabi/lib/thumb/libsysbase.a(handle_manager.o)
 .bss           0x0201f7d8        0x0 /home/gordo/devkitpro/devkitARM/bin/../lib/gcc/arm-eabi/4.4.0/thumb/libgcc.a(_arm_cmpdf2.o)
 .bss           0x0201f7d8        0x0 /home/gordo/devkitpro/devkitARM/bin/../lib/gcc/arm-eabi/4.4.0/thumb/libgcc.a(_arm_fixdfsi.o)
 .bss           0x0201f7d8        0x0 /home/gordo/devkitpro/devkitARM/bin/../lib/gcc/arm-eabi/4.4.0/../../../../arm-eabi/lib/thumb/libg.a(lib_a-strncmp.o)
 .bss           0x0201f7d8        0x0 /home/gordo/devkitpro/devkitARM/bin/../lib/gcc/arm-eabi/4.4.0/thumb/crtend.o
 .bss           0x0201f7d8        0x0 /home/gordo/devkitpro/devkitARM/bin/../lib/gcc/arm-eabi/4.4.0/thumb/crtn.o
 *(COMMON)
 COMMON         0x0201f7d8     0x9fac /home/gordo/devkitpro/libnds/lib/libdswifi9.a(wifi_arm9.o)
                0x0201f7d8                Wifi_Data_Struct
                0x0202971c                wifi_hw
                0x02029720                wHeapsize
                0x02029724                wHeapFirst
                0x02029728                wifi_connect_point
                0x02029780                wHeapStart
 COMMON         0x02029784       0x10 /home/gordo/devkitpro/libnds/lib/libdswifi9.a(sgIP.o)
                0x02029784                count_100ms
                0x02029788                count_1000ms
                0x0202978c                sgIP_timems
                0x02029790                sgIP_errno
 COMMON         0x02029794      0x400 /home/gordo/devkitpro/libnds/lib/libdswifi9.a(sgIP_ARP.o)
                0x02029794                ArpRecords
 COMMON         0x02029b94       0x84 /home/gordo/devkitpro/libnds/lib/libdswifi9.a(sgIP_DHCP.o)
                0x02029b94                dhcp_rcvd_dns
                0x02029ba0                dhcp_rcvd_snmask
                0x02029ba4                dhcp_state
                0x02029ba8                dhcp_p
                0x02029bac                dhcp_optionptr
                0x02029bb0                dhcp_int
                0x02029bb4                dhcp_rcvd_ip
                0x02029bb8                dhcp_hostname
                0x02029bf8                dhcp_serverip
                0x02029bfc                dhcp_tid
                0x02029c00                dhcp_requestDNS
                0x02029c04                dhcp_socket
                0x02029c08                dhcp_timestart
                0x02029c0c                dhcp_status
                0x02029c10                dhcp_rcvd_gateway
                0x02029c14                dhcp_timelastaction
 COMMON         0x02029c18     0x5cb4 /home/gordo/devkitpro/libnds/lib/libdswifi9.a(sgIP_DNS.o)
                0x02029c18                dnsrecord_return
                0x0202a13c                time_count
                0x0202a140                alias_list
                0x0202a154                querydata
                0x0202a354                responsedata
                0x0202a554                dnsrecords
                0x0202f794                ipaddr_ip
                0x0202f798                query_time_start
                0x0202f79c                addr_list
                0x0202f7b0                ipaddr_alias
                0x0202f8b0                dns_sock
                0x0202f8b4                last_id
                0x0202f8b8                dnsrecord_hostent
 COMMON         0x0202f8cc       0x40 /home/gordo/devkitpro/libnds/lib/libdswifi9.a(sgIP_Hub.o)
                0x0202f8cc                ProtocolInterfaces
                0x0202f8d4                NumHWInterfaces
                0x0202f8d8                HWInterfaces
                0x0202f908                NumProtocolInterfaces
 COMMON         0x0202f90c        0x4 /home/gordo/devkitpro/libnds/lib/libdswifi9.a(sgIP_IP.o)
                0x0202f90c                idnum_count
 COMMON         0x0202f910      0x810 /home/gordo/devkitpro/libnds/lib/libdswifi9.a(sgIP_TCP.o)
                0x0202f910                tcprecords
                0x0202f914                lasttime
                0x0202f918                port_counter
                0x0202f91c                numsynlist
                0x0202f920                synlist
 COMMON         0x02030120        0x8 /home/gordo/devkitpro/libnds/lib/libdswifi9.a(sgIP_UDP.o)
                0x02030120                udpport_counter
                0x02030124                udprecords
 COMMON         0x02030128      0x100 /home/gordo/devkitpro/libnds/lib/libdswifi9.a(sgIP_sockets.o)
                0x02030128                socketlist
 COMMON         0x02030228      0x148 /home/gordo/devkitpro/libnds/lib/libnds9.a(background.o)
                0x02030228                bgState
                0x02030368                bgIsTextLut
 COMMON         0x02030370       0x5c /home/gordo/devkitpro/libnds/lib/libnds9.a(console.o)
                0x02030370                currentCopy
 COMMON         0x020303cc        0x4 /home/gordo/devkitpro/libnds/lib/libnds9.a(initSystem.o)
                0x020303cc                theTime
 COMMON         0x020303d0     0x1214 /home/gordo/devkitpro/libnds/lib/libnds9.a(fifosystem.o)
                0x020303d0                fifo_datamsg_data
                0x02030410                fifo_buffer
                0x02031410                fifo_value32_func
                0x02031450                fifo_address_func
                0x02031490                fifo_freelist_start
                0x02031494                fifo_value32_data
                0x020314d4                fifo_sendwords_end
                0x020314d8                fifo_rcvdwords_start
                0x020314dc                fifo_channel_start
                0x0203151c                fifo_sendwords_start
                0x02031520                fifo_address_data
                0x02031560                fifo_channel_end
                0x020315a0                fifo_rcvdwords_end
                0x020315a4                fifo_datamsg_func
 COMMON         0x020315e4        0x4 /home/gordo/devkitpro/devkitARM/bin/../lib/gcc/arm-eabi/4.4.0/../../../../arm-eabi/lib/thumb/libsysbase.a(times.o)
                0x020315e4                punixTime
                0x020315e8                . = ALIGN (0x4)
                0x020315e8                __bss_end = ABSOLUTE (.)
                0x020315e8                __bss_end__ = __bss_end
                0x020315e8                _end = __bss_end__
                0x020315e8                __end__ = __bss_end__

.stab
 *(.stab)

.stabstr
 *(.stabstr)

.stab.excl
 *(.stab.excl)

.stab.exclstr
 *(.stab.exclstr)

.stab.index
 *(.stab.index)

.stab.indexstr
 *(.stab.indexstr)

.comment        0x00000000      0xcfd
 *(.comment)
 .comment       0x00000000       0x23 /home/gordo/devkitpro/devkitARM/bin/../lib/gcc/arm-eabi/4.4.0/thumb/crtbegin.o
 .comment       0x00000023       0x23 aplist.o
 .comment       0x00000046       0x23 brut.o
 .comment       0x00000069       0x23 main.o
 .comment       0x0000008c       0x23 spi_driver.o
 .comment       0x000000af       0x23 uart.o
 .comment       0x000000d2       0x23 /home/gordo/devkitpro/libnds/lib/libdswifi9.a(wifi_arm9.o)
 .comment       0x000000f5       0x23 /home/gordo/devkitpro/libnds/lib/libdswifi9.a(sgIP.o)
 .comment       0x00000118       0x23 /home/gordo/devkitpro/libnds/lib/libdswifi9.a(sgIP_ARP.o)
 .comment       0x0000013b       0x23 /home/gordo/devkitpro/libnds/lib/libdswifi9.a(sgIP_DHCP.o)
 .comment       0x0000015e       0x23 /home/gordo/devkitpro/libnds/lib/libdswifi9.a(sgIP_DNS.o)
 .comment       0x00000181       0x23 /home/gordo/devkitpro/libnds/lib/libdswifi9.a(sgIP_Hub.o)
 .comment       0x000001a4       0x23 /home/gordo/devkitpro/libnds/lib/libdswifi9.a(sgIP_IP.o)
 .comment       0x000001c7       0x23 /home/gordo/devkitpro/libnds/lib/libdswifi9.a(sgIP_TCP.o)
 .comment       0x000001ea       0x23 /home/gordo/devkitpro/libnds/lib/libdswifi9.a(sgIP_UDP.o)
 .comment       0x0000020d       0x23 /home/gordo/devkitpro/libnds/lib/libdswifi9.a(sgIP_memblock.o)
 .comment       0x00000230       0x23 /home/gordo/devkitpro/libnds/lib/libdswifi9.a(sgIP_sockets.o)
 .comment       0x00000253       0x23 /home/gordo/devkitpro/libnds/lib/libdswifi9.a(sgIP_ICMP.o)
 .comment       0x00000276       0x23 /home/gordo/devkitpro/libnds/lib/libnds9.a(background.o)
 .comment       0x00000299       0x23 /home/gordo/devkitpro/libnds/lib/libnds9.a(console.o)
 .comment       0x000002bc       0x23 /home/gordo/devkitpro/libnds/lib/libnds9.a(decompress.o)
 .comment       0x000002df       0x23 /home/gordo/devkitpro/libnds/lib/libnds9.a(initSystem.o)
 .comment       0x00000302       0x23 /home/gordo/devkitpro/libnds/lib/libnds9.a(keys.o)
 .comment       0x00000325       0x23 /home/gordo/devkitpro/libnds/lib/libnds9.a(system.o)
 .comment       0x00000348       0x23 /home/gordo/devkitpro/libnds/lib/libnds9.a(touch.o)
 .comment       0x0000036b       0x23 /home/gordo/devkitpro/libnds/lib/libnds9.a(trig.o)
 .comment       0x0000038e       0x23 /home/gordo/devkitpro/libnds/lib/libnds9.a(video.o)
 .comment       0x000003b1       0x23 /home/gordo/devkitpro/libnds/lib/libnds9.a(fifosystem.o)
 .comment       0x000003d4       0x23 /home/gordo/devkitpro/libnds/lib/libnds9.a(interrupts.o)
 .comment       0x000003f7       0x23 /home/gordo/devkitpro/devkitARM/bin/../lib/gcc/arm-eabi/4.4.0/../../../../arm-eabi/lib/thumb/libg.a(lib_a-bsearch.o)
 .comment       0x0000041a       0x23 /home/gordo/devkitpro/devkitARM/bin/../lib/gcc/arm-eabi/4.4.0/../../../../arm-eabi/lib/thumb/libg.a(lib_a-errno.o)
 .comment       0x0000043d       0x23 /home/gordo/devkitpro/devkitARM/bin/../lib/gcc/arm-eabi/4.4.0/../../../../arm-eabi/lib/thumb/libg.a(lib_a-impure.o)
 .comment       0x00000460       0x23 /home/gordo/devkitpro/devkitARM/bin/../lib/gcc/arm-eabi/4.4.0/../../../../arm-eabi/lib/thumb/libg.a(lib_a-init.o)
 .comment       0x00000483       0x23 /home/gordo/devkitpro/devkitARM/bin/../lib/gcc/arm-eabi/4.4.0/../../../../arm-eabi/lib/thumb/libg.a(lib_a-iprintf.o)
 .comment       0x000004a6       0x23 /home/gordo/devkitpro/devkitARM/bin/../lib/gcc/arm-eabi/4.4.0/../../../../arm-eabi/lib/thumb/libg.a(lib_a-malloc.o)
 .comment       0x000004c9       0x23 /home/gordo/devkitpro/devkitARM/bin/../lib/gcc/arm-eabi/4.4.0/../../../../arm-eabi/lib/thumb/libg.a(lib_a-mallocr.o)
 .comment       0x000004ec       0x23 /home/gordo/devkitpro/devkitARM/bin/../lib/gcc/arm-eabi/4.4.0/../../../../arm-eabi/lib/thumb/libg.a(lib_a-memcmp.o)
 .comment       0x0000050f       0x23 /home/gordo/devkitpro/devkitARM/bin/../lib/gcc/arm-eabi/4.4.0/../../../../arm-eabi/lib/thumb/libg.a(lib_a-memcpy.o)
 .comment       0x00000532       0x23 /home/gordo/devkitpro/devkitARM/bin/../lib/gcc/arm-eabi/4.4.0/../../../../arm-eabi/lib/thumb/libg.a(lib_a-memmove.o)
 .comment       0x00000555       0x23 /home/gordo/devkitpro/devkitARM/bin/../lib/gcc/arm-eabi/4.4.0/../../../../arm-eabi/lib/thumb/libg.a(lib_a-memset.o)
 .comment       0x00000578       0x23 /home/gordo/devkitpro/devkitARM/bin/../lib/gcc/arm-eabi/4.4.0/../../../../arm-eabi/lib/thumb/libg.a(lib_a-mlock.o)
 .comment       0x0000059b       0x23 /home/gordo/devkitpro/devkitARM/bin/../lib/gcc/arm-eabi/4.4.0/../../../../arm-eabi/lib/thumb/libg.a(lib_a-printf.o)
 .comment       0x000005be       0x23 /home/gordo/devkitpro/devkitARM/bin/../lib/gcc/arm-eabi/4.4.0/../../../../arm-eabi/lib/thumb/libg.a(lib_a-setvbuf.o)
 .comment       0x000005e1       0x23 /home/gordo/devkitpro/devkitARM/bin/../lib/gcc/arm-eabi/4.4.0/../../../../arm-eabi/lib/thumb/libg.a(lib_a-siscanf.o)
 .comment       0x00000604       0x23 /home/gordo/devkitpro/devkitARM/bin/../lib/gcc/arm-eabi/4.4.0/../../../../arm-eabi/lib/thumb/libg.a(lib_a-strlen.o)
 .comment       0x00000627       0x23 /home/gordo/devkitpro/devkitARM/bin/../lib/gcc/arm-eabi/4.4.0/../../../../arm-eabi/lib/thumb/libg.a(lib_a-strncpy.o)
 .comment       0x0000064a       0x23 /home/gordo/devkitpro/devkitARM/bin/../lib/gcc/arm-eabi/4.4.0/../../../../arm-eabi/lib/thumb/libg.a(lib_a-svfiscanf.o)
 .comment       0x0000066d       0x23 /home/gordo/devkitpro/devkitARM/bin/../lib/gcc/arm-eabi/4.4.0/../../../../arm-eabi/lib/thumb/libg.a(lib_a-time.o)
 .comment       0x00000690       0x23 /home/gordo/devkitpro/devkitARM/bin/../lib/gcc/arm-eabi/4.4.0/../../../../arm-eabi/lib/thumb/libg.a(lib_a-ungetc.o)
 .comment       0x000006b3       0x23 /home/gordo/devkitpro/devkitARM/bin/../lib/gcc/arm-eabi/4.4.0/../../../../arm-eabi/lib/thumb/libg.a(lib_a-vfiprintf.o)
 .comment       0x000006d6       0x23 /home/gordo/devkitpro/devkitARM/bin/../lib/gcc/arm-eabi/4.4.0/../../../../arm-eabi/lib/thumb/libg.a(lib_a-vfprintf.o)
 .comment       0x000006f9       0x23 /home/gordo/devkitpro/devkitARM/bin/../lib/gcc/arm-eabi/4.4.0/../../../../arm-eabi/lib/thumb/libg.a(lib_a-wcrtomb.o)
 .comment       0x0000071c       0x23 /home/gordo/devkitpro/devkitARM/bin/../lib/gcc/arm-eabi/4.4.0/../../../../arm-eabi/lib/thumb/libg.a(lib_a-wcsrtombs.o)
 .comment       0x0000073f       0x23 /home/gordo/devkitpro/devkitARM/bin/../lib/gcc/arm-eabi/4.4.0/../../../../arm-eabi/lib/thumb/libg.a(lib_a-wctomb_r.o)
 .comment       0x00000762       0x23 /home/gordo/devkitpro/devkitARM/bin/../lib/gcc/arm-eabi/4.4.0/../../../../arm-eabi/lib/thumb/libg.a(lib_a-wsetup.o)
 .comment       0x00000785       0x23 /home/gordo/devkitpro/devkitARM/bin/../lib/gcc/arm-eabi/4.4.0/../../../../arm-eabi/lib/thumb/libg.a(lib_a-ctype_.o)
 .comment       0x000007a8       0x23 /home/gordo/devkitpro/devkitARM/bin/../lib/gcc/arm-eabi/4.4.0/../../../../arm-eabi/lib/thumb/libg.a(lib_a-dtoa.o)
 .comment       0x000007cb       0x23 /home/gordo/devkitpro/devkitARM/bin/../lib/gcc/arm-eabi/4.4.0/../../../../arm-eabi/lib/thumb/libg.a(lib_a-fflush.o)
 .comment       0x000007ee       0x23 /home/gordo/devkitpro/devkitARM/bin/../lib/gcc/arm-eabi/4.4.0/../../../../arm-eabi/lib/thumb/libg.a(lib_a-findfp.o)
 .comment       0x00000811       0x23 /home/gordo/devkitpro/devkitARM/bin/../lib/gcc/arm-eabi/4.4.0/../../../../arm-eabi/lib/thumb/libg.a(lib_a-freer.o)
 .comment       0x00000834       0x23 /home/gordo/devkitpro/devkitARM/bin/../lib/gcc/arm-eabi/4.4.0/../../../../arm-eabi/lib/thumb/libg.a(lib_a-fvwrite.o)
 .comment       0x00000857       0x23 /home/gordo/devkitpro/devkitARM/bin/../lib/gcc/arm-eabi/4.4.0/../../../../arm-eabi/lib/thumb/libg.a(lib_a-fwalk.o)
 .comment       0x0000087a       0x23 /home/gordo/devkitpro/devkitARM/bin/../lib/gcc/arm-eabi/4.4.0/../../../../arm-eabi/lib/thumb/libg.a(lib_a-iswspace.o)
 .comment       0x0000089d       0x23 /home/gordo/devkitpro/devkitARM/bin/../lib/gcc/arm-eabi/4.4.0/../../../../arm-eabi/lib/thumb/libg.a(lib_a-jp2uc.o)
 .comment       0x000008c0       0x23 /home/gordo/devkitpro/devkitARM/bin/../lib/gcc/arm-eabi/4.4.0/../../../../arm-eabi/lib/thumb/libg.a(lib_a-locale.o)
 .comment       0x000008e3       0x23 /home/gordo/devkitpro/devkitARM/bin/../lib/gcc/arm-eabi/4.4.0/../../../../arm-eabi/lib/thumb/libg.a(lib_a-makebuf.o)
 .comment       0x00000906       0x23 /home/gordo/devkitpro/devkitARM/bin/../lib/gcc/arm-eabi/4.4.0/../../../../arm-eabi/lib/thumb/libg.a(lib_a-mbrtowc.o)
 .comment       0x00000929       0x23 /home/gordo/devkitpro/devkitARM/bin/../lib/gcc/arm-eabi/4.4.0/../../../../arm-eabi/lib/thumb/libg.a(lib_a-mbtowc_r.o)
 .comment       0x0000094c       0x23 /home/gordo/devkitpro/devkitARM/bin/../lib/gcc/arm-eabi/4.4.0/../../../../arm-eabi/lib/thumb/libg.a(lib_a-memchr.o)
 .comment       0x0000096f       0x23 /home/gordo/devkitpro/devkitARM/bin/../lib/gcc/arm-eabi/4.4.0/../../../../arm-eabi/lib/thumb/libg.a(lib_a-mprec.o)
 .comment       0x00000992       0x23 /home/gordo/devkitpro/devkitARM/bin/../lib/gcc/arm-eabi/4.4.0/../../../../arm-eabi/lib/thumb/libg.a(lib_a-reallocr.o)
 .comment       0x000009b5       0x23 /home/gordo/devkitpro/devkitARM/bin/../lib/gcc/arm-eabi/4.4.0/../../../../arm-eabi/lib/thumb/libg.a(lib_a-sccl.o)
 .comment       0x000009d8       0x23 /home/gordo/devkitpro/devkitARM/bin/../lib/gcc/arm-eabi/4.4.0/../../../../arm-eabi/lib/thumb/libg.a(lib_a-s_isinfd.o)
 .comment       0x000009fb       0x23 /home/gordo/devkitpro/devkitARM/bin/../lib/gcc/arm-eabi/4.4.0/../../../../arm-eabi/lib/thumb/libg.a(lib_a-s_isnand.o)
 .comment       0x00000a1e       0x23 /home/gordo/devkitpro/devkitARM/bin/../lib/gcc/arm-eabi/4.4.0/../../../../arm-eabi/lib/thumb/libg.a(lib_a-stdio.o)
 .comment       0x00000a41       0x23 /home/gordo/devkitpro/devkitARM/bin/../lib/gcc/arm-eabi/4.4.0/../../../../arm-eabi/lib/thumb/libg.a(lib_a-strcmp.o)
 .comment       0x00000a64       0x23 /home/gordo/devkitpro/devkitARM/bin/../lib/gcc/arm-eabi/4.4.0/../../../../arm-eabi/lib/thumb/libg.a(lib_a-strcpy.o)
 .comment       0x00000a87       0x23 /home/gordo/devkitpro/devkitARM/bin/../lib/gcc/arm-eabi/4.4.0/../../../../arm-eabi/lib/thumb/libg.a(lib_a-strtol.o)
 .comment       0x00000aaa       0x23 /home/gordo/devkitpro/devkitARM/bin/../lib/gcc/arm-eabi/4.4.0/../../../../arm-eabi/lib/thumb/libg.a(lib_a-strtoul.o)
 .comment       0x00000acd       0x23 /home/gordo/devkitpro/devkitARM/bin/../lib/gcc/arm-eabi/4.4.0/../../../../arm-eabi/lib/thumb/libg.a(lib_a-callocr.o)
 .comment       0x00000af0       0x23 /home/gordo/devkitpro/devkitARM/bin/../lib/gcc/arm-eabi/4.4.0/../../../../arm-eabi/lib/thumb/libg.a(lib_a-fclose.o)
 .comment       0x00000b13       0x23 /home/gordo/devkitpro/devkitARM/bin/../lib/gcc/arm-eabi/4.4.0/../../../../arm-eabi/lib/thumb/libsysbase.a(iosupport.o)
 .comment       0x00000b36       0x23 /home/gordo/devkitpro/devkitARM/bin/../lib/gcc/arm-eabi/4.4.0/../../../../arm-eabi/lib/thumb/libsysbase.a(close.o)
 .comment       0x00000b59       0x23 /home/gordo/devkitpro/devkitARM/bin/../lib/gcc/arm-eabi/4.4.0/../../../../arm-eabi/lib/thumb/libsysbase.a(fstat.o)
 .comment       0x00000b7c       0x23 /home/gordo/devkitpro/devkitARM/bin/../lib/gcc/arm-eabi/4.4.0/../../../../arm-eabi/lib/thumb/libsysbase.a(isatty.o)
 .comment       0x00000b9f       0x23 /home/gordo/devkitpro/devkitARM/bin/../lib/gcc/arm-eabi/4.4.0/../../../../arm-eabi/lib/thumb/libsysbase.a(lseek.o)
 .comment       0x00000bc2       0x23 /home/gordo/devkitpro/devkitARM/bin/../lib/gcc/arm-eabi/4.4.0/../../../../arm-eabi/lib/thumb/libsysbase.a(read.o)
 .comment       0x00000be5       0x23 /home/gordo/devkitpro/devkitARM/bin/../lib/gcc/arm-eabi/4.4.0/../../../../arm-eabi/lib/thumb/libsysbase.a(sbrk.o)
 .comment       0x00000c08       0x23 /home/gordo/devkitpro/devkitARM/bin/../lib/gcc/arm-eabi/4.4.0/../../../../arm-eabi/lib/thumb/libsysbase.a(times.o)
 .comment       0x00000c2b       0x23 /home/gordo/devkitpro/devkitARM/bin/../lib/gcc/arm-eabi/4.4.0/../../../../arm-eabi/lib/thumb/libsysbase.a(write.o)
 .comment       0x00000c4e       0x23 /home/gordo/devkitpro/devkitARM/bin/../lib/gcc/arm-eabi/4.4.0/../../../../arm-eabi/lib/thumb/libsysbase.a(malloc_vars.o)
 .comment       0x00000c71       0x23 /home/gordo/devkitpro/devkitARM/bin/../lib/gcc/arm-eabi/4.4.0/../../../../arm-eabi/lib/thumb/libsysbase.a(build_argv.o)
 .comment       0x00000c94       0x23 /home/gordo/devkitpro/devkitARM/bin/../lib/gcc/arm-eabi/4.4.0/../../../../arm-eabi/lib/thumb/libsysbase.a(handle_manager.o)
 .comment       0x00000cb7       0x23 /home/gordo/devkitpro/devkitARM/bin/../lib/gcc/arm-eabi/4.4.0/../../../../arm-eabi/lib/thumb/libg.a(lib_a-strncmp.o)
 .comment       0x00000cda       0x23 /home/gordo/devkitpro/devkitARM/bin/../lib/gcc/arm-eabi/4.4.0/thumb/crtend.o

.debug
 *(.debug)

.line
 *(.line)

.debug_srcinfo
 *(.debug_srcinfo)

.debug_sfnames
 *(.debug_sfnames)

.debug_aranges  0x00000000      0x420
 *(.debug_aranges)
 .debug_aranges
                0x00000000       0x20 aplist.o
 .debug_aranges
                0x00000020       0x20 brut.o
 .debug_aranges
                0x00000040       0x20 main.o
 .debug_aranges
                0x00000060       0x20 spi_driver.o
 .debug_aranges
                0x00000080       0x20 uart.o
 .debug_aranges
                0x000000a0       0x20 /home/gordo/devkitpro/libnds/lib/libdswifi9.a(wifi_arm9.o)
 .debug_aranges
                0x000000c0       0x20 /home/gordo/devkitpro/libnds/lib/libdswifi9.a(spinlock.o)
 .debug_aranges
                0x000000e0       0x20 /home/gordo/devkitpro/libnds/lib/libdswifi9.a(sgIP.o)
 .debug_aranges
                0x00000100       0x20 /home/gordo/devkitpro/libnds/lib/libdswifi9.a(sgIP_ARP.o)
 .debug_aranges
                0x00000120       0x20 /home/gordo/devkitpro/libnds/lib/libdswifi9.a(sgIP_DHCP.o)
 .debug_aranges
                0x00000140       0x20 /home/gordo/devkitpro/libnds/lib/libdswifi9.a(sgIP_DNS.o)
 .debug_aranges
                0x00000160       0x20 /home/gordo/devkitpro/libnds/lib/libdswifi9.a(sgIP_Hub.o)
 .debug_aranges
                0x00000180       0x20 /home/gordo/devkitpro/libnds/lib/libdswifi9.a(sgIP_IP.o)
 .debug_aranges
                0x000001a0       0x20 /home/gordo/devkitpro/libnds/lib/libdswifi9.a(sgIP_TCP.o)
 .debug_aranges
                0x000001c0       0x20 /home/gordo/devkitpro/libnds/lib/libdswifi9.a(sgIP_UDP.o)
 .debug_aranges
                0x000001e0       0x20 /home/gordo/devkitpro/libnds/lib/libdswifi9.a(sgIP_memblock.o)
 .debug_aranges
                0x00000200       0x20 /home/gordo/devkitpro/libnds/lib/libdswifi9.a(sgIP_sockets.o)
 .debug_aranges
                0x00000220       0x20 /home/gordo/devkitpro/libnds/lib/libdswifi9.a(sgIP_ICMP.o)
 .debug_aranges
                0x00000240       0x20 /home/gordo/devkitpro/libnds/lib/libnds9.a(background.o)
 .debug_aranges
                0x00000260       0x20 /home/gordo/devkitpro/libnds/lib/libnds9.a(console.o)
 .debug_aranges
                0x00000280       0x20 /home/gordo/devkitpro/libnds/lib/libnds9.a(decompress.o)
 .debug_aranges
                0x000002a0       0x20 /home/gordo/devkitpro/libnds/lib/libnds9.a(initSystem.o)
 .debug_aranges
                0x000002c0       0x20 /home/gordo/devkitpro/libnds/lib/libnds9.a(keys.o)
 .debug_aranges
                0x000002e0       0x20 /home/gordo/devkitpro/libnds/lib/libnds9.a(system.o)
 .debug_aranges
                0x00000300       0x20 /home/gordo/devkitpro/libnds/lib/libnds9.a(touch.o)
 .debug_aranges
                0x00000320       0x20 /home/gordo/devkitpro/libnds/lib/libnds9.a(trig.o)
 .debug_aranges
                0x00000340       0x20 /home/gordo/devkitpro/libnds/lib/libnds9.a(video.o)
 .debug_aranges
                0x00000360       0x20 /home/gordo/devkitpro/libnds/lib/libnds9.a(fifosystem.o)
 .debug_aranges
                0x00000380       0x20 /home/gordo/devkitpro/libnds/lib/libnds9.a(interrupts.o)
 .debug_aranges
                0x000003a0       0x20 /home/gordo/devkitpro/libnds/lib/libnds9.a(dcache.o)
 .debug_aranges
                0x000003c0       0x20 /home/gordo/devkitpro/libnds/lib/libnds9.a(biosCalls.o)
 .debug_aranges
                0x000003e0       0x20 /home/gordo/devkitpro/libnds/lib/libnds9.a(debugprint.o)
 .debug_aranges
                0x00000400       0x20 /home/gordo/devkitpro/libnds/lib/libnds9.a(interruptDispatcher.o)

.debug_pubnames
                0x00000000     0x211c
 *(.debug_pubnames)
 .debug_pubnames
                0x00000000       0x65 aplist.o
 .debug_pubnames
                0x00000065       0xed brut.o
 .debug_pubnames
                0x00000152       0x26 main.o
 .debug_pubnames
                0x00000178       0xbd spi_driver.o
 .debug_pubnames
                0x00000235      0x186 uart.o
 .debug_pubnames
                0x000003bb      0x494 /home/gordo/devkitpro/libnds/lib/libdswifi9.a(wifi_arm9.o)
 .debug_pubnames
                0x0000084f       0x6f /home/gordo/devkitpro/libnds/lib/libdswifi9.a(sgIP.o)
 .debug_pubnames
                0x000008be      0x170 /home/gordo/devkitpro/libnds/lib/libdswifi9.a(sgIP_ARP.o)
 .debug_pubnames
                0x00000a2e      0x216 /home/gordo/devkitpro/libnds/lib/libdswifi9.a(sgIP_DHCP.o)
 .debug_pubnames
                0x00000c44      0x1db /home/gordo/devkitpro/libnds/lib/libdswifi9.a(sgIP_DNS.o)
 .debug_pubnames
                0x00000e1f      0x1d6 /home/gordo/devkitpro/libnds/lib/libdswifi9.a(sgIP_Hub.o)
 .debug_pubnames
                0x00000ff5       0xaa /home/gordo/devkitpro/libnds/lib/libdswifi9.a(sgIP_IP.o)
 .debug_pubnames
                0x0000109f      0x20d /home/gordo/devkitpro/libnds/lib/libdswifi9.a(sgIP_TCP.o)
 .debug_pubnames
                0x000012ac      0x124 /home/gordo/devkitpro/libnds/lib/libdswifi9.a(sgIP_UDP.o)
 .debug_pubnames
                0x000013d0      0x125 /home/gordo/devkitpro/libnds/lib/libdswifi9.a(sgIP_memblock.o)
 .debug_pubnames
                0x000014f5      0x13a /home/gordo/devkitpro/libnds/lib/libdswifi9.a(sgIP_sockets.o)
 .debug_pubnames
                0x0000162f       0x41 /home/gordo/devkitpro/libnds/lib/libdswifi9.a(sgIP_ICMP.o)
 .debug_pubnames
                0x00001670       0xab /home/gordo/devkitpro/libnds/lib/libnds9.a(background.o)
 .debug_pubnames
                0x0000171b      0x12a /home/gordo/devkitpro/libnds/lib/libnds9.a(console.o)
 .debug_pubnames
                0x00001845       0x61 /home/gordo/devkitpro/libnds/lib/libnds9.a(decompress.o)
 .debug_pubnames
                0x000018a6       0x2d /home/gordo/devkitpro/libnds/lib/libnds9.a(initSystem.o)
 .debug_pubnames
                0x000018d3       0x79 /home/gordo/devkitpro/libnds/lib/libnds9.a(keys.o)
 .debug_pubnames
                0x0000194c       0x73 /home/gordo/devkitpro/libnds/lib/libnds9.a(system.o)
 .debug_pubnames
                0x000019bf       0x30 /home/gordo/devkitpro/libnds/lib/libnds9.a(touch.o)
 .debug_pubnames
                0x000019ef       0x99 /home/gordo/devkitpro/libnds/lib/libnds9.a(trig.o)
 .debug_pubnames
                0x00001a88       0xeb /home/gordo/devkitpro/libnds/lib/libnds9.a(video.o)
 .debug_pubnames
                0x00001b73      0x529 /home/gordo/devkitpro/libnds/lib/libnds9.a(fifosystem.o)
 .debug_pubnames
                0x0000209c       0x80 /home/gordo/devkitpro/libnds/lib/libnds9.a(interrupts.o)

.debug_info     0x00000000     0xf7f9
 *(.debug_info)
 .debug_info    0x00000000      0x7e7 aplist.o
 .debug_info    0x000007e7      0x75d brut.o
 .debug_info    0x00000f44      0x97f main.o
 .debug_info    0x000018c3      0x549 spi_driver.o
 .debug_info    0x00001e0c      0xc37 uart.o
 .debug_info    0x00002a43     0x22f6 /home/gordo/devkitpro/libnds/lib/libdswifi9.a(wifi_arm9.o)
 .debug_info    0x00004d39       0xbe /home/gordo/devkitpro/libnds/lib/libdswifi9.a(spinlock.o)
 .debug_info    0x00004df7       0xfc /home/gordo/devkitpro/libnds/lib/libdswifi9.a(sgIP.o)
 .debug_info    0x00004ef3      0x847 /home/gordo/devkitpro/libnds/lib/libdswifi9.a(sgIP_ARP.o)
 .debug_info    0x0000573a      0x857 /home/gordo/devkitpro/libnds/lib/libdswifi9.a(sgIP_DHCP.o)
 .debug_info    0x00005f91      0xaf1 /home/gordo/devkitpro/libnds/lib/libdswifi9.a(sgIP_DNS.o)
 .debug_info    0x00006a82      0x5da /home/gordo/devkitpro/libnds/lib/libdswifi9.a(sgIP_Hub.o)
 .debug_info    0x0000705c      0x344 /home/gordo/devkitpro/libnds/lib/libdswifi9.a(sgIP_IP.o)
 .debug_info    0x000073a0      0xe0f /home/gordo/devkitpro/libnds/lib/libdswifi9.a(sgIP_TCP.o)
 .debug_info    0x000081af      0x678 /home/gordo/devkitpro/libnds/lib/libdswifi9.a(sgIP_UDP.o)
 .debug_info    0x00008827      0x418 /home/gordo/devkitpro/libnds/lib/libdswifi9.a(sgIP_memblock.o)
 .debug_info    0x00008c3f      0xf4e /home/gordo/devkitpro/libnds/lib/libdswifi9.a(sgIP_sockets.o)
 .debug_info    0x00009b8d      0x1b5 /home/gordo/devkitpro/libnds/lib/libdswifi9.a(sgIP_ICMP.o)
 .debug_info    0x00009d42      0x857 /home/gordo/devkitpro/libnds/lib/libnds9.a(background.o)
 .debug_info    0x0000a599     0x1db6 /home/gordo/devkitpro/libnds/lib/libnds9.a(console.o)
 .debug_info    0x0000c34f      0x325 /home/gordo/devkitpro/libnds/lib/libnds9.a(decompress.o)
 .debug_info    0x0000c674      0x36a /home/gordo/devkitpro/libnds/lib/libnds9.a(initSystem.o)
 .debug_info    0x0000c9de      0x317 /home/gordo/devkitpro/libnds/lib/libnds9.a(keys.o)
 .debug_info    0x0000ccf5      0x503 /home/gordo/devkitpro/libnds/lib/libnds9.a(system.o)
 .debug_info    0x0000d1f8      0x222 /home/gordo/devkitpro/libnds/lib/libnds9.a(touch.o)
 .debug_info    0x0000d41a      0x3a7 /home/gordo/devkitpro/libnds/lib/libnds9.a(trig.o)
 .debug_info    0x0000d7c1      0x5c3 /home/gordo/devkitpro/libnds/lib/libnds9.a(video.o)
 .debug_info    0x0000dd84     0x1452 /home/gordo/devkitpro/libnds/lib/libnds9.a(fifosystem.o)
 .debug_info    0x0000f1d6      0x321 /home/gordo/devkitpro/libnds/lib/libnds9.a(interrupts.o)
 .debug_info    0x0000f4f7       0xba /home/gordo/devkitpro/libnds/lib/libnds9.a(dcache.o)
 .debug_info    0x0000f5b1       0xbf /home/gordo/devkitpro/libnds/lib/libnds9.a(biosCalls.o)
 .debug_info    0x0000f670       0xc0 /home/gordo/devkitpro/libnds/lib/libnds9.a(debugprint.o)
 .debug_info    0x0000f730       0xc9 /home/gordo/devkitpro/libnds/lib/libnds9.a(interruptDispatcher.o)

.debug_abbrev   0x00000000     0x393c
 *(.debug_abbrev)
 .debug_abbrev  0x00000000      0x262 aplist.o
 .debug_abbrev  0x00000262      0x1da brut.o
 .debug_abbrev  0x0000043c      0x242 main.o
 .debug_abbrev  0x0000067e      0x256 spi_driver.o
 .debug_abbrev  0x000008d4      0x37c uart.o
 .debug_abbrev  0x00000c50      0x55b /home/gordo/devkitpro/libnds/lib/libdswifi9.a(wifi_arm9.o)
 .debug_abbrev  0x000011ab       0x14 /home/gordo/devkitpro/libnds/lib/libdswifi9.a(spinlock.o)
 .debug_abbrev  0x000011bf       0x82 /home/gordo/devkitpro/libnds/lib/libdswifi9.a(sgIP.o)
 .debug_abbrev  0x00001241      0x290 /home/gordo/devkitpro/libnds/lib/libdswifi9.a(sgIP_ARP.o)
 .debug_abbrev  0x000014d1      0x22e /home/gordo/devkitpro/libnds/lib/libdswifi9.a(sgIP_DHCP.o)
 .debug_abbrev  0x000016ff      0x2a4 /home/gordo/devkitpro/libnds/lib/libdswifi9.a(sgIP_DNS.o)
 .debug_abbrev  0x000019a3      0x19c /home/gordo/devkitpro/libnds/lib/libdswifi9.a(sgIP_Hub.o)
 .debug_abbrev  0x00001b3f      0x12d /home/gordo/devkitpro/libnds/lib/libdswifi9.a(sgIP_IP.o)
 .debug_abbrev  0x00001c6c      0x2b2 /home/gordo/devkitpro/libnds/lib/libdswifi9.a(sgIP_TCP.o)
 .debug_abbrev  0x00001f1e      0x18f /home/gordo/devkitpro/libnds/lib/libdswifi9.a(sgIP_UDP.o)
 .debug_abbrev  0x000020ad      0x19e /home/gordo/devkitpro/libnds/lib/libdswifi9.a(sgIP_memblock.o)
 .debug_abbrev  0x0000224b      0x23b /home/gordo/devkitpro/libnds/lib/libdswifi9.a(sgIP_sockets.o)
 .debug_abbrev  0x00002486       0xdf /home/gordo/devkitpro/libnds/lib/libdswifi9.a(sgIP_ICMP.o)
 .debug_abbrev  0x00002565      0x22a /home/gordo/devkitpro/libnds/lib/libnds9.a(background.o)
 .debug_abbrev  0x0000278f      0x40a /home/gordo/devkitpro/libnds/lib/libnds9.a(console.o)
 .debug_abbrev  0x00002b99      0x123 /home/gordo/devkitpro/libnds/lib/libnds9.a(decompress.o)
 .debug_abbrev  0x00002cbc      0x15d /home/gordo/devkitpro/libnds/lib/libnds9.a(initSystem.o)
 .debug_abbrev  0x00002e19      0x15e /home/gordo/devkitpro/libnds/lib/libnds9.a(keys.o)
 .debug_abbrev  0x00002f77      0x14f /home/gordo/devkitpro/libnds/lib/libnds9.a(system.o)
 .debug_abbrev  0x000030c6      0x108 /home/gordo/devkitpro/libnds/lib/libnds9.a(touch.o)
 .debug_abbrev  0x000031ce      0x178 /home/gordo/devkitpro/libnds/lib/libnds9.a(trig.o)
 .debug_abbrev  0x00003346       0xfc /home/gordo/devkitpro/libnds/lib/libnds9.a(video.o)
 .debug_abbrev  0x00003442      0x349 /home/gordo/devkitpro/libnds/lib/libnds9.a(fifosystem.o)
 .debug_abbrev  0x0000378b      0x161 /home/gordo/devkitpro/libnds/lib/libnds9.a(interrupts.o)
 .debug_abbrev  0x000038ec       0x14 /home/gordo/devkitpro/libnds/lib/libnds9.a(dcache.o)
 .debug_abbrev  0x00003900       0x14 /home/gordo/devkitpro/libnds/lib/libnds9.a(biosCalls.o)
 .debug_abbrev  0x00003914       0x14 /home/gordo/devkitpro/libnds/lib/libnds9.a(debugprint.o)
 .debug_abbrev  0x00003928       0x14 /home/gordo/devkitpro/libnds/lib/libnds9.a(interruptDispatcher.o)

.debug_line     0x00000000     0x5714
 *(.debug_line)
 .debug_line    0x00000000      0x33e aplist.o
 .debug_line    0x0000033e      0x26f brut.o
 .debug_line    0x000005ad      0x348 main.o
 .debug_line    0x000008f5      0x226 spi_driver.o
 .debug_line    0x00000b1b      0x4c8 uart.o
 .debug_line    0x00000fe3      0x856 /home/gordo/devkitpro/libnds/lib/libdswifi9.a(wifi_arm9.o)
 .debug_line    0x00001839       0x9b /home/gordo/devkitpro/libnds/lib/libdswifi9.a(spinlock.o)
 .debug_line    0x000018d4       0x9b /home/gordo/devkitpro/libnds/lib/libdswifi9.a(sgIP.o)
 .debug_line    0x0000196f      0x1e1 /home/gordo/devkitpro/libnds/lib/libdswifi9.a(sgIP_ARP.o)
 .debug_line    0x00001b50      0x391 /home/gordo/devkitpro/libnds/lib/libdswifi9.a(sgIP_DHCP.o)
 .debug_line    0x00001ee1      0x3c1 /home/gordo/devkitpro/libnds/lib/libdswifi9.a(sgIP_DNS.o)
 .debug_line    0x000022a2      0x110 /home/gordo/devkitpro/libnds/lib/libdswifi9.a(sgIP_Hub.o)
 .debug_line    0x000023b2       0xee /home/gordo/devkitpro/libnds/lib/libdswifi9.a(sgIP_IP.o)
 .debug_line    0x000024a0      0x4ec /home/gordo/devkitpro/libnds/lib/libdswifi9.a(sgIP_TCP.o)
 .debug_line    0x0000298c      0x198 /home/gordo/devkitpro/libnds/lib/libdswifi9.a(sgIP_UDP.o)
 .debug_line    0x00002b24      0x14c /home/gordo/devkitpro/libnds/lib/libdswifi9.a(sgIP_memblock.o)
 .debug_line    0x00002c70      0x4bb /home/gordo/devkitpro/libnds/lib/libdswifi9.a(sgIP_sockets.o)
 .debug_line    0x0000312b       0xb3 /home/gordo/devkitpro/libnds/lib/libdswifi9.a(sgIP_ICMP.o)
 .debug_line    0x000031de      0x294 /home/gordo/devkitpro/libnds/lib/libnds9.a(background.o)
 .debug_line    0x00003472      0x681 /home/gordo/devkitpro/libnds/lib/libnds9.a(console.o)
 .debug_line    0x00003af3      0x1c2 /home/gordo/devkitpro/libnds/lib/libnds9.a(decompress.o)
 .debug_line    0x00003cb5      0x2ae /home/gordo/devkitpro/libnds/lib/libnds9.a(initSystem.o)
 .debug_line    0x00003f63      0x27c /home/gordo/devkitpro/libnds/lib/libnds9.a(keys.o)
 .debug_line    0x000041df      0x265 /home/gordo/devkitpro/libnds/lib/libnds9.a(system.o)
 .debug_line    0x00004444      0x212 /home/gordo/devkitpro/libnds/lib/libnds9.a(touch.o)
 .debug_line    0x00004656      0x1a5 /home/gordo/devkitpro/libnds/lib/libnds9.a(trig.o)
 .debug_line    0x000047fb      0x1c4 /home/gordo/devkitpro/libnds/lib/libnds9.a(video.o)
 .debug_line    0x000049bf      0x8fe /home/gordo/devkitpro/libnds/lib/libnds9.a(fifosystem.o)
 .debug_line    0x000052bd      0x1a1 /home/gordo/devkitpro/libnds/lib/libnds9.a(interrupts.o)
 .debug_line    0x0000545e       0xa2 /home/gordo/devkitpro/libnds/lib/libnds9.a(dcache.o)
 .debug_line    0x00005500       0xc1 /home/gordo/devkitpro/libnds/lib/libnds9.a(biosCalls.o)
 .debug_line    0x000055c1       0x94 /home/gordo/devkitpro/libnds/lib/libnds9.a(debugprint.o)
 .debug_line    0x00005655       0xbf /home/gordo/devkitpro/libnds/lib/libnds9.a(interruptDispatcher.o)

.debug_frame    0x00000000     0x1ea0
 *(.debug_frame)
 .debug_frame   0x00000000      0x4dc /home/gordo/devkitpro/libnds/lib/libdswifi9.a(wifi_arm9.o)
 .debug_frame   0x000004dc       0x40 /home/gordo/devkitpro/libnds/lib/libdswifi9.a(sgIP.o)
 .debug_frame   0x0000051c      0x180 /home/gordo/devkitpro/libnds/lib/libdswifi9.a(sgIP_ARP.o)
 .debug_frame   0x0000069c      0x154 /home/gordo/devkitpro/libnds/lib/libdswifi9.a(sgIP_DHCP.o)
 .debug_frame   0x000007f0      0x1a0 /home/gordo/devkitpro/libnds/lib/libdswifi9.a(sgIP_DNS.o)
 .debug_frame   0x00000990      0x138 /home/gordo/devkitpro/libnds/lib/libdswifi9.a(sgIP_Hub.o)
 .debug_frame   0x00000ac8       0x98 /home/gordo/devkitpro/libnds/lib/libdswifi9.a(sgIP_IP.o)
 .debug_frame   0x00000b60      0x298 /home/gordo/devkitpro/libnds/lib/libdswifi9.a(sgIP_TCP.o)
 .debug_frame   0x00000df8      0x148 /home/gordo/devkitpro/libnds/lib/libdswifi9.a(sgIP_UDP.o)
 .debug_frame   0x00000f40      0x124 /home/gordo/devkitpro/libnds/lib/libdswifi9.a(sgIP_memblock.o)
 .debug_frame   0x00001064      0x2b4 /home/gordo/devkitpro/libnds/lib/libdswifi9.a(sgIP_sockets.o)
 .debug_frame   0x00001318       0x40 /home/gordo/devkitpro/libnds/lib/libdswifi9.a(sgIP_ICMP.o)
 .debug_frame   0x00001358       0xb0 /home/gordo/devkitpro/libnds/lib/libnds9.a(background.o)
 .debug_frame   0x00001408      0x1b0 /home/gordo/devkitpro/libnds/lib/libnds9.a(console.o)
 .debug_frame   0x000015b8       0x64 /home/gordo/devkitpro/libnds/lib/libnds9.a(decompress.o)
 .debug_frame   0x0000161c       0x2c /home/gordo/devkitpro/libnds/lib/libnds9.a(initSystem.o)
 .debug_frame   0x00001648       0x94 /home/gordo/devkitpro/libnds/lib/libnds9.a(keys.o)
 .debug_frame   0x000016dc       0xa4 /home/gordo/devkitpro/libnds/lib/libnds9.a(system.o)
 .debug_frame   0x00001780       0x44 /home/gordo/devkitpro/libnds/lib/libnds9.a(touch.o)
 .debug_frame   0x000017c4       0xe0 /home/gordo/devkitpro/libnds/lib/libnds9.a(trig.o)
 .debug_frame   0x000018a4       0xe4 /home/gordo/devkitpro/libnds/lib/libnds9.a(video.o)
 .debug_frame   0x00001988      0x468 /home/gordo/devkitpro/libnds/lib/libnds9.a(fifosystem.o)
 .debug_frame   0x00001df0       0xb0 /home/gordo/devkitpro/libnds/lib/libnds9.a(interrupts.o)

.debug_str      0x00000000     0x5b26
 *(.debug_str)
 .debug_str     0x00000000      0x3a9 aplist.o
                                0x428 (size before relaxing)
 .debug_str     0x000003a9       0xfb brut.o
                                0x34b (size before relaxing)
 .debug_str     0x000004a4      0x577 main.o
                                0x850 (size before relaxing)
 .debug_str     0x00000a1b      0x1b3 spi_driver.o
                                0x400 (size before relaxing)
 .debug_str     0x00000bce      0x396 uart.o
                                0x694 (size before relaxing)
 .debug_str     0x00000f64      0xf7b /home/gordo/devkitpro/libnds/lib/libdswifi9.a(wifi_arm9.o)
                               0x1435 (size before relaxing)
 .debug_str     0x00001edf       0x8d /home/gordo/devkitpro/libnds/lib/libdswifi9.a(sgIP.o)
                                0x129 (size before relaxing)
 .debug_str     0x00001f6c      0x2ad /home/gordo/devkitpro/libnds/lib/libdswifi9.a(sgIP_ARP.o)
                                0x407 (size before relaxing)
 .debug_str     0x00002219      0x2b3 /home/gordo/devkitpro/libnds/lib/libdswifi9.a(sgIP_DHCP.o)
                                0x50f (size before relaxing)
 .debug_str     0x000024cc      0x2b9 /home/gordo/devkitpro/libnds/lib/libdswifi9.a(sgIP_DNS.o)
                                0x4f4 (size before relaxing)
 .debug_str     0x00002785      0x209 /home/gordo/devkitpro/libnds/lib/libdswifi9.a(sgIP_Hub.o)
                                0x398 (size before relaxing)
 .debug_str     0x0000298e      0x163 /home/gordo/devkitpro/libnds/lib/libdswifi9.a(sgIP_IP.o)
                                0x27b (size before relaxing)
 .debug_str     0x00002af1      0x573 /home/gordo/devkitpro/libnds/lib/libdswifi9.a(sgIP_TCP.o)
                                0x6c1 (size before relaxing)
 .debug_str     0x00003064      0x22c /home/gordo/devkitpro/libnds/lib/libdswifi9.a(sgIP_UDP.o)
                                0x381 (size before relaxing)
 .debug_str     0x00003290      0x1da /home/gordo/devkitpro/libnds/lib/libdswifi9.a(sgIP_memblock.o)
                                0x2d2 (size before relaxing)
 .debug_str     0x0000346a      0x1ef /home/gordo/devkitpro/libnds/lib/libdswifi9.a(sgIP_sockets.o)
                                0x707 (size before relaxing)
 .debug_str     0x00003659       0x9b /home/gordo/devkitpro/libnds/lib/libdswifi9.a(sgIP_ICMP.o)
                                0x1a0 (size before relaxing)
 .debug_str     0x000036f4      0x304 /home/gordo/devkitpro/libnds/lib/libnds9.a(background.o)
                                0x648 (size before relaxing)
 .debug_str     0x000039f8      0xad2 /home/gordo/devkitpro/libnds/lib/libnds9.a(console.o)
                                0xf9e (size before relaxing)
 .debug_str     0x000044ca       0xfc /home/gordo/devkitpro/libnds/lib/libnds9.a(decompress.o)
                                0x1f1 (size before relaxing)
 .debug_str     0x000045c6       0xda /home/gordo/devkitpro/libnds/lib/libnds9.a(initSystem.o)
                                0x399 (size before relaxing)
 .debug_str     0x000046a0       0xcc /home/gordo/devkitpro/libnds/lib/libnds9.a(keys.o)
                                0x287 (size before relaxing)
 .debug_str     0x0000476c      0x2a1 /home/gordo/devkitpro/libnds/lib/libnds9.a(system.o)
                                0x4a9 (size before relaxing)
 .debug_str     0x00004a0d       0x70 /home/gordo/devkitpro/libnds/lib/libnds9.a(touch.o)
                                0x1a2 (size before relaxing)
 .debug_str     0x00004a7d       0xba /home/gordo/devkitpro/libnds/lib/libnds9.a(trig.o)
                                0x195 (size before relaxing)
 .debug_str     0x00004b37      0x7cc /home/gordo/devkitpro/libnds/lib/libnds9.a(video.o)
                                0xae3 (size before relaxing)
 .debug_str     0x00005303      0x6ed /home/gordo/devkitpro/libnds/lib/libnds9.a(fifosystem.o)
                                0x8fb (size before relaxing)
 .debug_str     0x000059f0      0x136 /home/gordo/devkitpro/libnds/lib/libnds9.a(interrupts.o)
                                0x2ec (size before relaxing)

.debug_loc      0x00000000     0xbcb3
 *(.debug_loc)
 .debug_loc     0x00000000      0x387 aplist.o
 .debug_loc     0x00000387      0x410 brut.o
 .debug_loc     0x00000797      0x129 main.o
 .debug_loc     0x000008c0      0x136 spi_driver.o
 .debug_loc     0x000009f6      0x757 uart.o
 .debug_loc     0x0000114d     0x1910 /home/gordo/devkitpro/libnds/lib/libdswifi9.a(wifi_arm9.o)
 .debug_loc     0x00002a5d       0x7e /home/gordo/devkitpro/libnds/lib/libdswifi9.a(sgIP.o)
 .debug_loc     0x00002adb      0x7e3 /home/gordo/devkitpro/libnds/lib/libdswifi9.a(sgIP_ARP.o)
 .debug_loc     0x000032be      0x67d /home/gordo/devkitpro/libnds/lib/libdswifi9.a(sgIP_DHCP.o)
 .debug_loc     0x0000393b      0xcfb /home/gordo/devkitpro/libnds/lib/libdswifi9.a(sgIP_DNS.o)
 .debug_loc     0x00004636      0x3c6 /home/gordo/devkitpro/libnds/lib/libdswifi9.a(sgIP_Hub.o)
 .debug_loc     0x000049fc      0x257 /home/gordo/devkitpro/libnds/lib/libdswifi9.a(sgIP_IP.o)
 .debug_loc     0x00004c53     0x1a45 /home/gordo/devkitpro/libnds/lib/libdswifi9.a(sgIP_TCP.o)
 .debug_loc     0x00006698      0x99f /home/gordo/devkitpro/libnds/lib/libdswifi9.a(sgIP_UDP.o)
 .debug_loc     0x00007037      0x692 /home/gordo/devkitpro/libnds/lib/libdswifi9.a(sgIP_memblock.o)
 .debug_loc     0x000076c9     0x13fa /home/gordo/devkitpro/libnds/lib/libdswifi9.a(sgIP_sockets.o)
 .debug_loc     0x00008ac3       0xf0 /home/gordo/devkitpro/libnds/lib/libdswifi9.a(sgIP_ICMP.o)
 .debug_loc     0x00008bb3      0x2ee /home/gordo/devkitpro/libnds/lib/libnds9.a(background.o)
 .debug_loc     0x00008ea1      0xb91 /home/gordo/devkitpro/libnds/lib/libnds9.a(console.o)
 .debug_loc     0x00009a32      0x1c5 /home/gordo/devkitpro/libnds/lib/libnds9.a(decompress.o)
 .debug_loc     0x00009bf7       0x3e /home/gordo/devkitpro/libnds/lib/libnds9.a(initSystem.o)
 .debug_loc     0x00009c35       0x51 /home/gordo/devkitpro/libnds/lib/libnds9.a(keys.o)
 .debug_loc     0x00009c86      0x19d /home/gordo/devkitpro/libnds/lib/libnds9.a(system.o)
 .debug_loc     0x00009e23       0x3e /home/gordo/devkitpro/libnds/lib/libnds9.a(touch.o)
 .debug_loc     0x00009e61      0x429 /home/gordo/devkitpro/libnds/lib/libnds9.a(trig.o)
 .debug_loc     0x0000a28a      0x18f /home/gordo/devkitpro/libnds/lib/libnds9.a(video.o)
 .debug_loc     0x0000a419     0x175d /home/gordo/devkitpro/libnds/lib/libnds9.a(fifosystem.o)
 .debug_loc     0x0000bb76      0x13d /home/gordo/devkitpro/libnds/lib/libnds9.a(interrupts.o)

.debug_macinfo
 *(.debug_macinfo)

.debug_weaknames
 *(.debug_weaknames)

.debug_funcnames
 *(.debug_funcnames)

.debug_typenames
 *(.debug_typenames)

.debug_varnames
 *(.debug_varnames)

.stack          0x00080000        0x0
                0x00080000                _stack = .
 *(.stack)
LOAD /home/gordo/devkitpro/devkitARM/bin/../lib/gcc/arm-eabi/4.4.0/../../../../arm-eabi/lib/thumb/ds_arm9_crt0.o
LOAD /home/gordo/devkitpro/devkitARM/bin/../lib/gcc/arm-eabi/4.4.0/thumb/crti.o
LOAD /home/gordo/devkitpro/devkitARM/bin/../lib/gcc/arm-eabi/4.4.0/thumb/crtbegin.o
LOAD cclogo.o
LOAD aplist.o
LOAD brut.o
LOAD main.o
LOAD spi_driver.o
LOAD uart.o
LOAD /home/gordo/devkitpro/libnds/lib/libdswifi9.a
LOAD /home/gordo/devkitpro/libnds/lib/libnds9.a
START GROUP
LOAD /home/gordo/devkitpro/devkitARM/bin/../lib/gcc/arm-eabi/4.4.0/thumb/libgcc.a
LOAD /home/gordo/devkitpro/devkitARM/bin/../lib/gcc/arm-eabi/4.4.0/../../../../arm-eabi/lib/thumb/libg.a
LOAD /home/gordo/devkitpro/devkitARM/bin/../lib/gcc/arm-eabi/4.4.0/../../../../arm-eabi/lib/thumb/libc.a
LOAD /home/gordo/devkitpro/devkitARM/bin/../lib/gcc/arm-eabi/4.4.0/../../../../arm-eabi/lib/thumb/libsysbase.a
END GROUP
LOAD /home/gordo/devkitpro/devkitARM/bin/../lib/gcc/arm-eabi/4.4.0/thumb/crtend.o
LOAD /home/gordo/devkitpro/devkitARM/bin/../lib/gcc/arm-eabi/4.4.0/thumb/crtn.o
OUTPUT(/home/gordo/PROJEKTA/constraint_city/code/constraintcity/constraintcity.elf elf32-littlearm)

.ARM.attributes
                0x00000000       0x2f
 .ARM.attributes
                0x00000000       0x1f /home/gordo/devkitpro/devkitARM/bin/../lib/gcc/arm-eabi/4.4.0/../../../../arm-eabi/lib/thumb/ds_arm9_crt0.o
 .ARM.attributes
                0x0000001f       0x1e /home/gordo/devkitpro/devkitARM/bin/../lib/gcc/arm-eabi/4.4.0/thumb/crti.o
 .ARM.attributes
                0x0000003d       0x2e /home/gordo/devkitpro/devkitARM/bin/../lib/gcc/arm-eabi/4.4.0/thumb/crtbegin.o
 .ARM.attributes
                0x0000006b       0x1c cclogo.o
 .ARM.attributes
                0x00000087       0x25 aplist.o
 .ARM.attributes
                0x000000ac       0x25 brut.o
 .ARM.attributes
                0x000000d1       0x25 main.o
 .ARM.attributes
                0x000000f6       0x25 spi_driver.o
 .ARM.attributes
                0x0000011b       0x25 uart.o
 .ARM.attributes
                0x00000140       0x25 /home/gordo/devkitpro/libnds/lib/libdswifi9.a(wifi_arm9.o)
 .ARM.attributes
                0x00000165       0x1e /home/gordo/devkitpro/libnds/lib/libdswifi9.a(spinlock.o)
 .ARM.attributes
                0x00000183       0x25 /home/gordo/devkitpro/libnds/lib/libdswifi9.a(sgIP.o)
 .ARM.attributes
                0x000001a8       0x25 /home/gordo/devkitpro/libnds/lib/libdswifi9.a(sgIP_ARP.o)
 .ARM.attributes
                0x000001cd       0x25 /home/gordo/devkitpro/libnds/lib/libdswifi9.a(sgIP_DHCP.o)
 .ARM.attributes
                0x000001f2       0x25 /home/gordo/devkitpro/libnds/lib/libdswifi9.a(sgIP_DNS.o)
 .ARM.attributes
                0x00000217       0x25 /home/gordo/devkitpro/libnds/lib/libdswifi9.a(sgIP_Hub.o)
 .ARM.attributes
                0x0000023c       0x25 /home/gordo/devkitpro/libnds/lib/libdswifi9.a(sgIP_IP.o)
 .ARM.attributes
                0x00000261       0x25 /home/gordo/devkitpro/libnds/lib/libdswifi9.a(sgIP_TCP.o)
 .ARM.attributes
                0x00000286       0x25 /home/gordo/devkitpro/libnds/lib/libdswifi9.a(sgIP_UDP.o)
 .ARM.attributes
                0x000002ab       0x25 /home/gordo/devkitpro/libnds/lib/libdswifi9.a(sgIP_memblock.o)
 .ARM.attributes
                0x000002d0       0x25 /home/gordo/devkitpro/libnds/lib/libdswifi9.a(sgIP_sockets.o)
 .ARM.attributes
                0x000002f5       0x25 /home/gordo/devkitpro/libnds/lib/libdswifi9.a(sgIP_ICMP.o)
 .ARM.attributes
                0x0000031a       0x25 /home/gordo/devkitpro/libnds/lib/libnds9.a(background.o)
 .ARM.attributes
                0x0000033f       0x25 /home/gordo/devkitpro/libnds/lib/libnds9.a(console.o)
 .ARM.attributes
                0x00000364       0x25 /home/gordo/devkitpro/libnds/lib/libnds9.a(decompress.o)
 .ARM.attributes
                0x00000389       0x25 /home/gordo/devkitpro/libnds/lib/libnds9.a(initSystem.o)
 .ARM.attributes
                0x000003ae       0x25 /home/gordo/devkitpro/libnds/lib/libnds9.a(keys.o)
 .ARM.attributes
                0x000003d3       0x25 /home/gordo/devkitpro/libnds/lib/libnds9.a(system.o)
 .ARM.attributes
                0x000003f8       0x25 /home/gordo/devkitpro/libnds/lib/libnds9.a(touch.o)
 .ARM.attributes
                0x0000041d       0x25 /home/gordo/devkitpro/libnds/lib/libnds9.a(trig.o)
 .ARM.attributes
                0x00000442       0x25 /home/gordo/devkitpro/libnds/lib/libnds9.a(video.o)
 .ARM.attributes
                0x00000467       0x25 /home/gordo/devkitpro/libnds/lib/libnds9.a(fifosystem.o)
 .ARM.attributes
                0x0000048c       0x25 /home/gordo/devkitpro/libnds/lib/libnds9.a(interrupts.o)
 .ARM.attributes
                0x000004b1       0x19 /home/gordo/devkitpro/libnds/lib/libnds9.a(dcache.o)
 .ARM.attributes
                0x000004ca       0x19 /home/gordo/devkitpro/libnds/lib/libnds9.a(biosCalls.o)
 .ARM.attributes
                0x000004e3       0x19 /home/gordo/devkitpro/libnds/lib/libnds9.a(debugprint.o)
 .ARM.attributes
                0x000004fc       0x19 /home/gordo/devkitpro/libnds/lib/libnds9.a(interruptDispatcher.o)
 .ARM.attributes
                0x00000515       0x10 /home/gordo/devkitpro/libnds/lib/libnds9.a(default_font.bin.o)
 .ARM.attributes
                0x00000525       0x1e /home/gordo/devkitpro/devkitARM/bin/../lib/gcc/arm-eabi/4.4.0/thumb/libgcc.a(_udivsi3.o)
 .ARM.attributes
                0x00000543       0x1e /home/gordo/devkitpro/devkitARM/bin/../lib/gcc/arm-eabi/4.4.0/thumb/libgcc.a(_divsi3.o)
 .ARM.attributes
                0x00000561       0x1e /home/gordo/devkitpro/devkitARM/bin/../lib/gcc/arm-eabi/4.4.0/thumb/libgcc.a(_dvmd_tls.o)
 .ARM.attributes
                0x0000057f       0x1e /home/gordo/devkitpro/devkitARM/bin/../lib/gcc/arm-eabi/4.4.0/thumb/libgcc.a(_arm_addsubdf3.o)
 .ARM.attributes
                0x0000059d       0x1e /home/gordo/devkitpro/devkitARM/bin/../lib/gcc/arm-eabi/4.4.0/thumb/libgcc.a(_arm_muldivdf3.o)
 .ARM.attributes
                0x000005bb       0x1e /home/gordo/devkitpro/devkitARM/bin/../lib/gcc/arm-eabi/4.4.0/thumb/libgcc.a(_arm_fixunsdfsi.o)
 .ARM.attributes
                0x000005d9       0x1e /home/gordo/devkitpro/devkitARM/bin/../lib/gcc/arm-eabi/4.4.0/thumb/libgcc.a(_arm_truncdfsf2.o)
 .ARM.attributes
                0x000005f7       0x1e /home/gordo/devkitpro/devkitARM/bin/../lib/gcc/arm-eabi/4.4.0/thumb/libgcc.a(_arm_addsubsf3.o)
 .ARM.attributes
                0x00000615       0x1e /home/gordo/devkitpro/devkitARM/bin/../lib/gcc/arm-eabi/4.4.0/thumb/libgcc.a(_arm_muldivsf3.o)
 .ARM.attributes
                0x00000633       0x1e /home/gordo/devkitpro/devkitARM/bin/../lib/gcc/arm-eabi/4.4.0/thumb/libgcc.a(_arm_cmpsf2.o)
 .ARM.attributes
                0x00000651       0x1e /home/gordo/devkitpro/devkitARM/bin/../lib/gcc/arm-eabi/4.4.0/thumb/libgcc.a(_arm_fixunssfsi.o)
 .ARM.attributes
                0x0000066f       0x2e /home/gordo/devkitpro/devkitARM/bin/../lib/gcc/arm-eabi/4.4.0/../../../../arm-eabi/lib/thumb/libg.a(lib_a-bsearch.o)
 .ARM.attributes
                0x0000069d       0x2e /home/gordo/devkitpro/devkitARM/bin/../lib/gcc/arm-eabi/4.4.0/../../../../arm-eabi/lib/thumb/libg.a(lib_a-errno.o)
 .ARM.attributes
                0x000006cb       0x2c /home/gordo/devkitpro/devkitARM/bin/../lib/gcc/arm-eabi/4.4.0/../../../../arm-eabi/lib/thumb/libg.a(lib_a-impure.o)
 .ARM.attributes
                0x000006f7       0x2e /home/gordo/devkitpro/devkitARM/bin/../lib/gcc/arm-eabi/4.4.0/../../../../arm-eabi/lib/thumb/libg.a(lib_a-init.o)
 .ARM.attributes
                0x00000725       0x2e /home/gordo/devkitpro/devkitARM/bin/../lib/gcc/arm-eabi/4.4.0/../../../../arm-eabi/lib/thumb/libg.a(lib_a-iprintf.o)
 .ARM.attributes
                0x00000753       0x2e /home/gordo/devkitpro/devkitARM/bin/../lib/gcc/arm-eabi/4.4.0/../../../../arm-eabi/lib/thumb/libg.a(lib_a-malloc.o)
 .ARM.attributes
                0x00000781       0x2e /home/gordo/devkitpro/devkitARM/bin/../lib/gcc/arm-eabi/4.4.0/../../../../arm-eabi/lib/thumb/libg.a(lib_a-mallocr.o)
 .ARM.attributes
                0x000007af       0x2e /home/gordo/devkitpro/devkitARM/bin/../lib/gcc/arm-eabi/4.4.0/../../../../arm-eabi/lib/thumb/libg.a(lib_a-memcmp.o)
 .ARM.attributes
                0x000007dd       0x2e /home/gordo/devkitpro/devkitARM/bin/../lib/gcc/arm-eabi/4.4.0/../../../../arm-eabi/lib/thumb/libg.a(lib_a-memcpy.o)
 .ARM.attributes
                0x0000080b       0x2e /home/gordo/devkitpro/devkitARM/bin/../lib/gcc/arm-eabi/4.4.0/../../../../arm-eabi/lib/thumb/libg.a(lib_a-memmove.o)
 .ARM.attributes
                0x00000839       0x2e /home/gordo/devkitpro/devkitARM/bin/../lib/gcc/arm-eabi/4.4.0/../../../../arm-eabi/lib/thumb/libg.a(lib_a-memset.o)
 .ARM.attributes
                0x00000867       0x2e /home/gordo/devkitpro/devkitARM/bin/../lib/gcc/arm-eabi/4.4.0/../../../../arm-eabi/lib/thumb/libg.a(lib_a-mlock.o)
 .ARM.attributes
                0x00000895       0x2e /home/gordo/devkitpro/devkitARM/bin/../lib/gcc/arm-eabi/4.4.0/../../../../arm-eabi/lib/thumb/libg.a(lib_a-printf.o)
 .ARM.attributes
                0x000008c3       0x2e /home/gordo/devkitpro/devkitARM/bin/../lib/gcc/arm-eabi/4.4.0/../../../../arm-eabi/lib/thumb/libg.a(lib_a-setvbuf.o)
 .ARM.attributes
                0x000008f1       0x2e /home/gordo/devkitpro/devkitARM/bin/../lib/gcc/arm-eabi/4.4.0/../../../../arm-eabi/lib/thumb/libg.a(lib_a-siscanf.o)
 .ARM.attributes
                0x0000091f       0x2e /home/gordo/devkitpro/devkitARM/bin/../lib/gcc/arm-eabi/4.4.0/../../../../arm-eabi/lib/thumb/libg.a(lib_a-strlen.o)
 .ARM.attributes
                0x0000094d       0x2e /home/gordo/devkitpro/devkitARM/bin/../lib/gcc/arm-eabi/4.4.0/../../../../arm-eabi/lib/thumb/libg.a(lib_a-strncpy.o)
 .ARM.attributes
                0x0000097b       0x2e /home/gordo/devkitpro/devkitARM/bin/../lib/gcc/arm-eabi/4.4.0/../../../../arm-eabi/lib/thumb/libg.a(lib_a-svfiscanf.o)
 .ARM.attributes
                0x000009a9       0x2e /home/gordo/devkitpro/devkitARM/bin/../lib/gcc/arm-eabi/4.4.0/../../../../arm-eabi/lib/thumb/libg.a(lib_a-time.o)
 .ARM.attributes
                0x000009d7       0x2e /home/gordo/devkitpro/devkitARM/bin/../lib/gcc/arm-eabi/4.4.0/../../../../arm-eabi/lib/thumb/libg.a(lib_a-ungetc.o)
 .ARM.attributes
                0x00000a05       0x2e /home/gordo/devkitpro/devkitARM/bin/../lib/gcc/arm-eabi/4.4.0/../../../../arm-eabi/lib/thumb/libg.a(lib_a-vfiprintf.o)
 .ARM.attributes
                0x00000a33       0x2e /home/gordo/devkitpro/devkitARM/bin/../lib/gcc/arm-eabi/4.4.0/../../../../arm-eabi/lib/thumb/libg.a(lib_a-vfprintf.o)
 .ARM.attributes
                0x00000a61       0x2e /home/gordo/devkitpro/devkitARM/bin/../lib/gcc/arm-eabi/4.4.0/../../../../arm-eabi/lib/thumb/libg.a(lib_a-wcrtomb.o)
 .ARM.attributes
                0x00000a8f       0x2e /home/gordo/devkitpro/devkitARM/bin/../lib/gcc/arm-eabi/4.4.0/../../../../arm-eabi/lib/thumb/libg.a(lib_a-wcsrtombs.o)
 .ARM.attributes
                0x00000abd       0x2e /home/gordo/devkitpro/devkitARM/bin/../lib/gcc/arm-eabi/4.4.0/../../../../arm-eabi/lib/thumb/libg.a(lib_a-wctomb_r.o)
 .ARM.attributes
                0x00000aeb       0x2e /home/gordo/devkitpro/devkitARM/bin/../lib/gcc/arm-eabi/4.4.0/../../../../arm-eabi/lib/thumb/libg.a(lib_a-wsetup.o)
 .ARM.attributes
                0x00000b19       0x2c /home/gordo/devkitpro/devkitARM/bin/../lib/gcc/arm-eabi/4.4.0/../../../../arm-eabi/lib/thumb/libg.a(lib_a-ctype_.o)
 .ARM.attributes
                0x00000b45       0x2e /home/gordo/devkitpro/devkitARM/bin/../lib/gcc/arm-eabi/4.4.0/../../../../arm-eabi/lib/thumb/libg.a(lib_a-dtoa.o)
 .ARM.attributes
                0x00000b73       0x2e /home/gordo/devkitpro/devkitARM/bin/../lib/gcc/arm-eabi/4.4.0/../../../../arm-eabi/lib/thumb/libg.a(lib_a-fflush.o)
 .ARM.attributes
                0x00000ba1       0x2e /home/gordo/devkitpro/devkitARM/bin/../lib/gcc/arm-eabi/4.4.0/../../../../arm-eabi/lib/thumb/libg.a(lib_a-findfp.o)
 .ARM.attributes
                0x00000bcf       0x2e /home/gordo/devkitpro/devkitARM/bin/../lib/gcc/arm-eabi/4.4.0/../../../../arm-eabi/lib/thumb/libg.a(lib_a-freer.o)
 .ARM.attributes
                0x00000bfd       0x2e /home/gordo/devkitpro/devkitARM/bin/../lib/gcc/arm-eabi/4.4.0/../../../../arm-eabi/lib/thumb/libg.a(lib_a-fvwrite.o)
 .ARM.attributes
                0x00000c2b       0x2e /home/gordo/devkitpro/devkitARM/bin/../lib/gcc/arm-eabi/4.4.0/../../../../arm-eabi/lib/thumb/libg.a(lib_a-fwalk.o)
 .ARM.attributes
                0x00000c59       0x2e /home/gordo/devkitpro/devkitARM/bin/../lib/gcc/arm-eabi/4.4.0/../../../../arm-eabi/lib/thumb/libg.a(lib_a-iswspace.o)
 .ARM.attributes
                0x00000c87       0x2e /home/gordo/devkitpro/devkitARM/bin/../lib/gcc/arm-eabi/4.4.0/../../../../arm-eabi/lib/thumb/libg.a(lib_a-jp2uc.o)
 .ARM.attributes
                0x00000cb5       0x2e /home/gordo/devkitpro/devkitARM/bin/../lib/gcc/arm-eabi/4.4.0/../../../../arm-eabi/lib/thumb/libg.a(lib_a-locale.o)
 .ARM.attributes
                0x00000ce3       0x2e /home/gordo/devkitpro/devkitARM/bin/../lib/gcc/arm-eabi/4.4.0/../../../../arm-eabi/lib/thumb/libg.a(lib_a-makebuf.o)
 .ARM.attributes
                0x00000d11       0x2e /home/gordo/devkitpro/devkitARM/bin/../lib/gcc/arm-eabi/4.4.0/../../../../arm-eabi/lib/thumb/libg.a(lib_a-mbrtowc.o)
 .ARM.attributes
                0x00000d3f       0x2e /home/gordo/devkitpro/devkitARM/bin/../lib/gcc/arm-eabi/4.4.0/../../../../arm-eabi/lib/thumb/libg.a(lib_a-mbtowc_r.o)
 .ARM.attributes
                0x00000d6d       0x2e /home/gordo/devkitpro/devkitARM/bin/../lib/gcc/arm-eabi/4.4.0/../../../../arm-eabi/lib/thumb/libg.a(lib_a-memchr.o)
 .ARM.attributes
                0x00000d9b       0x2e /home/gordo/devkitpro/devkitARM/bin/../lib/gcc/arm-eabi/4.4.0/../../../../arm-eabi/lib/thumb/libg.a(lib_a-mprec.o)
 .ARM.attributes
                0x00000dc9       0x2e /home/gordo/devkitpro/devkitARM/bin/../lib/gcc/arm-eabi/4.4.0/../../../../arm-eabi/lib/thumb/libg.a(lib_a-reallocr.o)
 .ARM.attributes
                0x00000df7       0x2e /home/gordo/devkitpro/devkitARM/bin/../lib/gcc/arm-eabi/4.4.0/../../../../arm-eabi/lib/thumb/libg.a(lib_a-sccl.o)
 .ARM.attributes
                0x00000e25       0x2e /home/gordo/devkitpro/devkitARM/bin/../lib/gcc/arm-eabi/4.4.0/../../../../arm-eabi/lib/thumb/libg.a(lib_a-s_isinfd.o)
 .ARM.attributes
                0x00000e53       0x2e /home/gordo/devkitpro/devkitARM/bin/../lib/gcc/arm-eabi/4.4.0/../../../../arm-eabi/lib/thumb/libg.a(lib_a-s_isnand.o)
 .ARM.attributes
                0x00000e81       0x2e /home/gordo/devkitpro/devkitARM/bin/../lib/gcc/arm-eabi/4.4.0/../../../../arm-eabi/lib/thumb/libg.a(lib_a-stdio.o)
 .ARM.attributes
                0x00000eaf       0x2e /home/gordo/devkitpro/devkitARM/bin/../lib/gcc/arm-eabi/4.4.0/../../../../arm-eabi/lib/thumb/libg.a(lib_a-strcmp.o)
 .ARM.attributes
                0x00000edd       0x2e /home/gordo/devkitpro/devkitARM/bin/../lib/gcc/arm-eabi/4.4.0/../../../../arm-eabi/lib/thumb/libg.a(lib_a-strcpy.o)
 .ARM.attributes
                0x00000f0b       0x2e /home/gordo/devkitpro/devkitARM/bin/../lib/gcc/arm-eabi/4.4.0/../../../../arm-eabi/lib/thumb/libg.a(lib_a-strtol.o)
 .ARM.attributes
                0x00000f39       0x2e /home/gordo/devkitpro/devkitARM/bin/../lib/gcc/arm-eabi/4.4.0/../../../../arm-eabi/lib/thumb/libg.a(lib_a-strtoul.o)
 .ARM.attributes
                0x00000f67       0x2e /home/gordo/devkitpro/devkitARM/bin/../lib/gcc/arm-eabi/4.4.0/../../../../arm-eabi/lib/thumb/libg.a(lib_a-callocr.o)
 .ARM.attributes
                0x00000f95       0x2e /home/gordo/devkitpro/devkitARM/bin/../lib/gcc/arm-eabi/4.4.0/../../../../arm-eabi/lib/thumb/libg.a(lib_a-fclose.o)
 .ARM.attributes
                0x00000fc3       0x2e /home/gordo/devkitpro/devkitARM/bin/../lib/gcc/arm-eabi/4.4.0/../../../../arm-eabi/lib/thumb/libsysbase.a(iosupport.o)
 .ARM.attributes
                0x00000ff1       0x2e /home/gordo/devkitpro/devkitARM/bin/../lib/gcc/arm-eabi/4.4.0/../../../../arm-eabi/lib/thumb/libsysbase.a(close.o)
 .ARM.attributes
                0x0000101f       0x2e /home/gordo/devkitpro/devkitARM/bin/../lib/gcc/arm-eabi/4.4.0/../../../../arm-eabi/lib/thumb/libsysbase.a(fstat.o)
 .ARM.attributes
                0x0000104d       0x2e /home/gordo/devkitpro/devkitARM/bin/../lib/gcc/arm-eabi/4.4.0/../../../../arm-eabi/lib/thumb/libsysbase.a(isatty.o)
 .ARM.attributes
                0x0000107b       0x2e /home/gordo/devkitpro/devkitARM/bin/../lib/gcc/arm-eabi/4.4.0/../../../../arm-eabi/lib/thumb/libsysbase.a(lseek.o)
 .ARM.attributes
                0x000010a9       0x2e /home/gordo/devkitpro/devkitARM/bin/../lib/gcc/arm-eabi/4.4.0/../../../../arm-eabi/lib/thumb/libsysbase.a(read.o)
 .ARM.attributes
                0x000010d7       0x2e /home/gordo/devkitpro/devkitARM/bin/../lib/gcc/arm-eabi/4.4.0/../../../../arm-eabi/lib/thumb/libsysbase.a(sbrk.o)
 .ARM.attributes
                0x00001105       0x2e /home/gordo/devkitpro/devkitARM/bin/../lib/gcc/arm-eabi/4.4.0/../../../../arm-eabi/lib/thumb/libsysbase.a(times.o)
 .ARM.attributes
                0x00001133       0x2e /home/gordo/devkitpro/devkitARM/bin/../lib/gcc/arm-eabi/4.4.0/../../../../arm-eabi/lib/thumb/libsysbase.a(write.o)
 .ARM.attributes
                0x00001161       0x2c /home/gordo/devkitpro/devkitARM/bin/../lib/gcc/arm-eabi/4.4.0/../../../../arm-eabi/lib/thumb/libsysbase.a(malloc_vars.o)
 .ARM.attributes
                0x0000118d       0x2e /home/gordo/devkitpro/devkitARM/bin/../lib/gcc/arm-eabi/4.4.0/../../../../arm-eabi/lib/thumb/libsysbase.a(build_argv.o)
 .ARM.attributes
                0x000011bb       0x2e /home/gordo/devkitpro/devkitARM/bin/../lib/gcc/arm-eabi/4.4.0/../../../../arm-eabi/lib/thumb/libsysbase.a(handle_manager.o)
 .ARM.attributes
                0x000011e9       0x1e /home/gordo/devkitpro/devkitARM/bin/../lib/gcc/arm-eabi/4.4.0/thumb/libgcc.a(_arm_cmpdf2.o)
 .ARM.attributes
                0x00001207       0x1e /home/gordo/devkitpro/devkitARM/bin/../lib/gcc/arm-eabi/4.4.0/thumb/libgcc.a(_arm_fixdfsi.o)
 .ARM.attributes
                0x00001225       0x2e /home/gordo/devkitpro/devkitARM/bin/../lib/gcc/arm-eabi/4.4.0/../../../../arm-eabi/lib/thumb/libg.a(lib_a-strncmp.o)
 .ARM.attributes
                0x00001253       0x2c /home/gordo/devkitpro/devkitARM/bin/../lib/gcc/arm-eabi/4.4.0/thumb/crtend.o
 .ARM.attributes
                0x0000127f       0x1e /home/gordo/devkitpro/devkitARM/bin/../lib/gcc/arm-eabi/4.4.0/thumb/crtn.o

.debug_ranges   0x00000000     0x1160
 .debug_ranges  0x00000000       0x28 aplist.o
 .debug_ranges  0x00000028       0x40 spi_driver.o
 .debug_ranges  0x00000068       0x80 uart.o
 .debug_ranges  0x000000e8      0x478 /home/gordo/devkitpro/libnds/lib/libdswifi9.a(wifi_arm9.o)
 .debug_ranges  0x00000560       0x30 /home/gordo/devkitpro/libnds/lib/libdswifi9.a(sgIP_ARP.o)
 .debug_ranges  0x00000590       0x78 /home/gordo/devkitpro/libnds/lib/libdswifi9.a(sgIP_DNS.o)
 .debug_ranges  0x00000608       0xe0 /home/gordo/devkitpro/libnds/lib/libdswifi9.a(sgIP_TCP.o)
 .debug_ranges  0x000006e8       0x38 /home/gordo/devkitpro/libnds/lib/libdswifi9.a(sgIP_sockets.o)
 .debug_ranges  0x00000720       0x98 /home/gordo/devkitpro/libnds/lib/libnds9.a(background.o)
 .debug_ranges  0x000007b8      0x210 /home/gordo/devkitpro/libnds/lib/libnds9.a(console.o)
 .debug_ranges  0x000009c8       0x18 /home/gordo/devkitpro/libnds/lib/libnds9.a(touch.o)
 .debug_ranges  0x000009e0       0x90 /home/gordo/devkitpro/libnds/lib/libnds9.a(trig.o)
 .debug_ranges  0x00000a70      0x6f0 /home/gordo/devkitpro/libnds/lib/libnds9.a(fifosystem.o)
